(dp0
I0
S'import/input/x-input'
p1
sI1
S'import/input/y-input'
p2
sI2
S'import/input_reshape/Reshape/shape'
p3
sI3
S'import/input_reshape/Reshape'
p4
sI4
S'import/input_reshape/input/tag'
p5
sI5
S'import/input_reshape/input'
p6
sI6
S'import/layer1/weights/truncated_normal/shape'
p7
sI7
S'import/layer1/weights/truncated_normal/mean'
p8
sI8
S'import/layer1/weights/truncated_normal/stddev'
p9
sI9
S'import/layer1/weights/truncated_normal/TruncatedNormal'
p10
sI10
S'import/layer1/weights/truncated_normal/mul'
p11
sI11
S'import/layer1/weights/truncated_normal'
p12
sI12
S'import/layer1/weights/Variable'
p13
sI13
S'import/layer1/weights/Variable/Assign'
p14
sI14
S'import/layer1/weights/Variable/read'
p15
sI15
S'import/layer1/weights/summaries/Rank'
p16
sI16
S'import/layer1/weights/summaries/range/start'
p17
sI17
S'import/layer1/weights/summaries/range/delta'
p18
sI18
S'import/layer1/weights/summaries/range'
p19
sI19
S'import/layer1/weights/summaries/Mean'
p20
sI20
S'import/layer1/weights/summaries/mean/tags'
p21
sI21
S'import/layer1/weights/summaries/mean'
p22
sI22
S'import/layer1/weights/summaries/stddev/sub'
p23
sI23
S'import/layer1/weights/summaries/stddev/Square'
p24
sI24
S'import/layer1/weights/summaries/stddev/Const'
p25
sI25
S'import/layer1/weights/summaries/stddev/Mean'
p26
sI26
S'import/layer1/weights/summaries/stddev/Sqrt'
p27
sI27
S'import/layer1/weights/summaries/stddev_1/tags'
p28
sI28
S'import/layer1/weights/summaries/stddev_1'
p29
sI29
S'import/layer1/weights/summaries/Rank_1'
p30
sI30
S'import/layer1/weights/summaries/range_1/start'
p31
sI31
S'import/layer1/weights/summaries/range_1/delta'
p32
sI32
S'import/layer1/weights/summaries/range_1'
p33
sI33
S'import/layer1/weights/summaries/Max'
p34
sI34
S'import/layer1/weights/summaries/max/tags'
p35
sI35
S'import/layer1/weights/summaries/max'
p36
sI36
S'import/layer1/weights/summaries/Rank_2'
p37
sI37
S'import/layer1/weights/summaries/range_2/start'
p38
sI38
S'import/layer1/weights/summaries/range_2/delta'
p39
sI39
S'import/layer1/weights/summaries/range_2'
p40
sI40
S'import/layer1/weights/summaries/Min'
p41
sI41
S'import/layer1/weights/summaries/min/tags'
p42
sI42
S'import/layer1/weights/summaries/min'
p43
sI43
S'import/layer1/weights/summaries/histogram/tag'
p44
sI44
S'import/layer1/weights/summaries/histogram'
p45
sI45
S'import/layer1/biases/Const'
p46
sI46
S'import/layer1/biases/Variable'
p47
sI47
S'import/layer1/biases/Variable/Assign'
p48
sI48
S'import/layer1/biases/Variable/read'
p49
sI49
S'import/layer1/biases/summaries/Rank'
p50
sI50
S'import/layer1/biases/summaries/range/start'
p51
sI51
S'import/layer1/biases/summaries/range/delta'
p52
sI52
S'import/layer1/biases/summaries/range'
p53
sI53
S'import/layer1/biases/summaries/Mean'
p54
sI54
S'import/layer1/biases/summaries/mean/tags'
p55
sI55
S'import/layer1/biases/summaries/mean'
p56
sI56
S'import/layer1/biases/summaries/stddev/sub'
p57
sI57
S'import/layer1/biases/summaries/stddev/Square'
p58
sI58
S'import/layer1/biases/summaries/stddev/Const'
p59
sI59
S'import/layer1/biases/summaries/stddev/Mean'
p60
sI60
S'import/layer1/biases/summaries/stddev/Sqrt'
p61
sI61
S'import/layer1/biases/summaries/stddev_1/tags'
p62
sI62
S'import/layer1/biases/summaries/stddev_1'
p63
sI63
S'import/layer1/biases/summaries/Rank_1'
p64
sI64
S'import/layer1/biases/summaries/range_1/start'
p65
sI65
S'import/layer1/biases/summaries/range_1/delta'
p66
sI66
S'import/layer1/biases/summaries/range_1'
p67
sI67
S'import/layer1/biases/summaries/Max'
p68
sI68
S'import/layer1/biases/summaries/max/tags'
p69
sI69
S'import/layer1/biases/summaries/max'
p70
sI70
S'import/layer1/biases/summaries/Rank_2'
p71
sI71
S'import/layer1/biases/summaries/range_2/start'
p72
sI72
S'import/layer1/biases/summaries/range_2/delta'
p73
sI73
S'import/layer1/biases/summaries/range_2'
p74
sI74
S'import/layer1/biases/summaries/Min'
p75
sI75
S'import/layer1/biases/summaries/min/tags'
p76
sI76
S'import/layer1/biases/summaries/min'
p77
sI77
S'import/layer1/biases/summaries/histogram/tag'
p78
sI78
S'import/layer1/biases/summaries/histogram'
p79
sI79
S'import/layer1/Wx_plus_b/MatMul'
p80
sI80
S'import/layer1/Wx_plus_b/add'
p81
sI81
S'import/layer1/Wx_plus_b/pre_activations/tag'
p82
sI82
S'import/layer1/Wx_plus_b/pre_activations'
p83
sI83
S'import/layer1/activation'
p84
sI84
S'import/layer1/activations/tag'
p85
sI85
S'import/layer1/activations'
p86
sI86
S'import/dropout/Placeholder'
p87
sI87
S'import/dropout/dropout_keep_probability/tags'
p88
sI88
S'import/dropout/dropout_keep_probability'
p89
sI89
S'import/dropout/dropout/Shape'
p90
sI90
S'import/dropout/dropout/random_uniform/min'
p91
sI91
S'import/dropout/dropout/random_uniform/max'
p92
sI92
S'import/dropout/dropout/random_uniform/RandomUniform'
p93
sI93
S'import/dropout/dropout/random_uniform/sub'
p94
sI94
S'import/dropout/dropout/random_uniform/mul'
p95
sI95
S'import/dropout/dropout/random_uniform'
p96
sI96
S'import/dropout/dropout/add'
p97
sI97
S'import/dropout/dropout/Floor'
p98
sI98
S'import/dropout/dropout/div'
p99
sI99
S'import/dropout/dropout/mul'
p100
sI100
S'import/layer2/weights/truncated_normal/shape'
p101
sI101
S'import/layer2/weights/truncated_normal/mean'
p102
sI102
S'import/layer2/weights/truncated_normal/stddev'
p103
sI103
S'import/layer2/weights/truncated_normal/TruncatedNormal'
p104
sI104
S'import/layer2/weights/truncated_normal/mul'
p105
sI105
S'import/layer2/weights/truncated_normal'
p106
sI106
S'import/layer2/weights/Variable'
p107
sI107
S'import/layer2/weights/Variable/Assign'
p108
sI108
S'import/layer2/weights/Variable/read'
p109
sI109
S'import/layer2/weights/summaries/Rank'
p110
sI110
S'import/layer2/weights/summaries/range/start'
p111
sI111
S'import/layer2/weights/summaries/range/delta'
p112
sI112
S'import/layer2/weights/summaries/range'
p113
sI113
S'import/layer2/weights/summaries/Mean'
p114
sI114
S'import/layer2/weights/summaries/mean/tags'
p115
sI115
S'import/layer2/weights/summaries/mean'
p116
sI116
S'import/layer2/weights/summaries/stddev/sub'
p117
sI117
S'import/layer2/weights/summaries/stddev/Square'
p118
sI118
S'import/layer2/weights/summaries/stddev/Const'
p119
sI119
S'import/layer2/weights/summaries/stddev/Mean'
p120
sI120
S'import/layer2/weights/summaries/stddev/Sqrt'
p121
sI121
S'import/layer2/weights/summaries/stddev_1/tags'
p122
sI122
S'import/layer2/weights/summaries/stddev_1'
p123
sI123
S'import/layer2/weights/summaries/Rank_1'
p124
sI124
S'import/layer2/weights/summaries/range_1/start'
p125
sI125
S'import/layer2/weights/summaries/range_1/delta'
p126
sI126
S'import/layer2/weights/summaries/range_1'
p127
sI127
S'import/layer2/weights/summaries/Max'
p128
sI128
S'import/layer2/weights/summaries/max/tags'
p129
sI129
S'import/layer2/weights/summaries/max'
p130
sI130
S'import/layer2/weights/summaries/Rank_2'
p131
sI131
S'import/layer2/weights/summaries/range_2/start'
p132
sI132
S'import/layer2/weights/summaries/range_2/delta'
p133
sI133
S'import/layer2/weights/summaries/range_2'
p134
sI134
S'import/layer2/weights/summaries/Min'
p135
sI135
S'import/layer2/weights/summaries/min/tags'
p136
sI136
S'import/layer2/weights/summaries/min'
p137
sI137
S'import/layer2/weights/summaries/histogram/tag'
p138
sI138
S'import/layer2/weights/summaries/histogram'
p139
sI139
S'import/layer2/biases/Const'
p140
sI140
S'import/layer2/biases/Variable'
p141
sI141
S'import/layer2/biases/Variable/Assign'
p142
sI142
S'import/layer2/biases/Variable/read'
p143
sI143
S'import/layer2/biases/summaries/Rank'
p144
sI144
S'import/layer2/biases/summaries/range/start'
p145
sI145
S'import/layer2/biases/summaries/range/delta'
p146
sI146
S'import/layer2/biases/summaries/range'
p147
sI147
S'import/layer2/biases/summaries/Mean'
p148
sI148
S'import/layer2/biases/summaries/mean/tags'
p149
sI149
S'import/layer2/biases/summaries/mean'
p150
sI150
S'import/layer2/biases/summaries/stddev/sub'
p151
sI151
S'import/layer2/biases/summaries/stddev/Square'
p152
sI152
S'import/layer2/biases/summaries/stddev/Const'
p153
sI153
S'import/layer2/biases/summaries/stddev/Mean'
p154
sI154
S'import/layer2/biases/summaries/stddev/Sqrt'
p155
sI155
S'import/layer2/biases/summaries/stddev_1/tags'
p156
sI156
S'import/layer2/biases/summaries/stddev_1'
p157
sI157
S'import/layer2/biases/summaries/Rank_1'
p158
sI158
S'import/layer2/biases/summaries/range_1/start'
p159
sI159
S'import/layer2/biases/summaries/range_1/delta'
p160
sI160
S'import/layer2/biases/summaries/range_1'
p161
sI161
S'import/layer2/biases/summaries/Max'
p162
sI162
S'import/layer2/biases/summaries/max/tags'
p163
sI163
S'import/layer2/biases/summaries/max'
p164
sI164
S'import/layer2/biases/summaries/Rank_2'
p165
sI165
S'import/layer2/biases/summaries/range_2/start'
p166
sI166
S'import/layer2/biases/summaries/range_2/delta'
p167
sI167
S'import/layer2/biases/summaries/range_2'
p168
sI168
S'import/layer2/biases/summaries/Min'
p169
sI169
S'import/layer2/biases/summaries/min/tags'
p170
sI170
S'import/layer2/biases/summaries/min'
p171
sI171
S'import/layer2/biases/summaries/histogram/tag'
p172
sI172
S'import/layer2/biases/summaries/histogram'
p173
sI173
S'import/layer2/Wx_plus_b/MatMul'
p174
sI174
S'import/layer2/Wx_plus_b/add'
p175
sI175
S'import/layer2/Wx_plus_b/pre_activations/tag'
p176
sI176
S'import/layer2/Wx_plus_b/pre_activations'
p177
sI177
S'import/layer2/activation'
p178
sI178
S'import/layer2/activations/tag'
p179
sI179
S'import/layer2/activations'
p180
sI180
S'import/cross_entropy/total/sparse_softmax_cross_entropy_loss/Const'
p181
sI181
S'import/cross_entropy/total/sparse_softmax_cross_entropy_loss/xentropy/Shape'
p182
sI182
S'import/cross_entropy/total/sparse_softmax_cross_entropy_loss/xentropy/xentropy'
p183
sI183
S'import/cross_entropy/total/sparse_softmax_cross_entropy_loss/assert_broadcastable/weights/shape'
p184
sI184
S'import/cross_entropy/total/sparse_softmax_cross_entropy_loss/assert_broadcastable/weights/rank'
p185
sI185
S'import/cross_entropy/total/sparse_softmax_cross_entropy_loss/assert_broadcastable/values/shape'
p186
sI186
S'import/cross_entropy/total/sparse_softmax_cross_entropy_loss/assert_broadcastable/values/rank'
p187
sI187
S'import/cross_entropy/total/sparse_softmax_cross_entropy_loss/assert_broadcastable/static_scalar_check_success'
p188
sI188
S'import/cross_entropy/total/sparse_softmax_cross_entropy_loss/Mul'
p189
sI189
S'import/cross_entropy/total/sparse_softmax_cross_entropy_loss/Const_1'
p190
sI190
S'import/cross_entropy/total/sparse_softmax_cross_entropy_loss/Sum'
p191
sI191
S'import/cross_entropy/total/sparse_softmax_cross_entropy_loss/num_present/Equal/y'
p192
sI192
S'import/cross_entropy/total/sparse_softmax_cross_entropy_loss/num_present/Equal'
p193
sI193
S'import/cross_entropy/total/sparse_softmax_cross_entropy_loss/num_present/zeros_like'
p194
sI194
S'import/cross_entropy/total/sparse_softmax_cross_entropy_loss/num_present/ones_like/Shape'
p195
sI195
S'import/cross_entropy/total/sparse_softmax_cross_entropy_loss/num_present/ones_like/Const'
p196
sI196
S'import/cross_entropy/total/sparse_softmax_cross_entropy_loss/num_present/ones_like'
p197
sI197
S'import/cross_entropy/total/sparse_softmax_cross_entropy_loss/num_present/Select'
p198
sI198
S'import/cross_entropy/total/sparse_softmax_cross_entropy_loss/num_present/broadcast_weights/assert_broadcastable/weights/shape'
p199
sI199
S'import/cross_entropy/total/sparse_softmax_cross_entropy_loss/num_present/broadcast_weights/assert_broadcastable/weights/rank'
p200
sI200
S'import/cross_entropy/total/sparse_softmax_cross_entropy_loss/num_present/broadcast_weights/assert_broadcastable/values/shape'
p201
sI201
S'import/cross_entropy/total/sparse_softmax_cross_entropy_loss/num_present/broadcast_weights/assert_broadcastable/values/rank'
p202
sI202
S'import/cross_entropy/total/sparse_softmax_cross_entropy_loss/num_present/broadcast_weights/assert_broadcastable/static_scalar_check_success'
p203
sI203
S'import/cross_entropy/total/sparse_softmax_cross_entropy_loss/num_present/broadcast_weights/ones_like/Shape'
p204
sI204
S'import/cross_entropy/total/sparse_softmax_cross_entropy_loss/num_present/broadcast_weights/ones_like/Const'
p205
sI205
S'import/cross_entropy/total/sparse_softmax_cross_entropy_loss/num_present/broadcast_weights/ones_like'
p206
sI206
S'import/cross_entropy/total/sparse_softmax_cross_entropy_loss/num_present/broadcast_weights'
p207
sI207
S'import/cross_entropy/total/sparse_softmax_cross_entropy_loss/num_present/Const'
p208
sI208
S'import/cross_entropy/total/sparse_softmax_cross_entropy_loss/num_present'
p209
sI209
S'import/cross_entropy/total/sparse_softmax_cross_entropy_loss/Const_2'
p210
sI210
S'import/cross_entropy/total/sparse_softmax_cross_entropy_loss/Sum_1'
p211
sI211
S'import/cross_entropy/total/sparse_softmax_cross_entropy_loss/Greater/y'
p212
sI212
S'import/cross_entropy/total/sparse_softmax_cross_entropy_loss/Greater'
p213
sI213
S'import/cross_entropy/total/sparse_softmax_cross_entropy_loss/Equal/y'
p214
sI214
S'import/cross_entropy/total/sparse_softmax_cross_entropy_loss/Equal'
p215
sI215
S'import/cross_entropy/total/sparse_softmax_cross_entropy_loss/ones_like/Shape'
p216
sI216
S'import/cross_entropy/total/sparse_softmax_cross_entropy_loss/ones_like/Const'
p217
sI217
S'import/cross_entropy/total/sparse_softmax_cross_entropy_loss/ones_like'
p218
sI218
S'import/cross_entropy/total/sparse_softmax_cross_entropy_loss/Select'
p219
sI219
S'import/cross_entropy/total/sparse_softmax_cross_entropy_loss/div'
p220
sI220
S'import/cross_entropy/total/sparse_softmax_cross_entropy_loss/zeros_like'
p221
sI221
S'import/cross_entropy/total/sparse_softmax_cross_entropy_loss/value'
p222
sI222
S'import/cross_entropy_1/tags'
p223
sI223
S'import/cross_entropy_1'
p224
sI224
S'import/train/gradients/Shape'
p225
sI225
S'import/train/gradients/Const'
p226
sI226
S'import/train/gradients/Fill'
p227
sI227
S'import/train/gradients/cross_entropy/total/sparse_softmax_cross_entropy_loss/value_grad/zeros_like'
p228
sI228
S'import/train/gradients/cross_entropy/total/sparse_softmax_cross_entropy_loss/value_grad/Select'
p229
sI229
S'import/train/gradients/cross_entropy/total/sparse_softmax_cross_entropy_loss/value_grad/Select_1'
p230
sI230
S'import/train/gradients/cross_entropy/total/sparse_softmax_cross_entropy_loss/value_grad/tuple/group_deps'
p231
sI231
S'import/train/gradients/cross_entropy/total/sparse_softmax_cross_entropy_loss/value_grad/tuple/control_dependency'
p232
sI232
S'import/train/gradients/cross_entropy/total/sparse_softmax_cross_entropy_loss/value_grad/tuple/control_dependency_1'
p233
sI233
S'import/train/gradients/cross_entropy/total/sparse_softmax_cross_entropy_loss/div_grad/Shape'
p234
sI234
S'import/train/gradients/cross_entropy/total/sparse_softmax_cross_entropy_loss/div_grad/Shape_1'
p235
sI235
S'import/train/gradients/cross_entropy/total/sparse_softmax_cross_entropy_loss/div_grad/BroadcastGradientArgs'
p236
sI236
S'import/train/gradients/cross_entropy/total/sparse_softmax_cross_entropy_loss/div_grad/RealDiv'
p237
sI237
S'import/train/gradients/cross_entropy/total/sparse_softmax_cross_entropy_loss/div_grad/Sum'
p238
sI238
S'import/train/gradients/cross_entropy/total/sparse_softmax_cross_entropy_loss/div_grad/Reshape'
p239
sI239
S'import/train/gradients/cross_entropy/total/sparse_softmax_cross_entropy_loss/div_grad/Neg'
p240
sI240
S'import/train/gradients/cross_entropy/total/sparse_softmax_cross_entropy_loss/div_grad/RealDiv_1'
p241
sI241
S'import/train/gradients/cross_entropy/total/sparse_softmax_cross_entropy_loss/div_grad/RealDiv_2'
p242
sI242
S'import/train/gradients/cross_entropy/total/sparse_softmax_cross_entropy_loss/div_grad/mul'
p243
sI243
S'import/train/gradients/cross_entropy/total/sparse_softmax_cross_entropy_loss/div_grad/Sum_1'
p244
sI244
S'import/train/gradients/cross_entropy/total/sparse_softmax_cross_entropy_loss/div_grad/Reshape_1'
p245
sI245
S'import/train/gradients/cross_entropy/total/sparse_softmax_cross_entropy_loss/div_grad/tuple/group_deps'
p246
sI246
S'import/train/gradients/cross_entropy/total/sparse_softmax_cross_entropy_loss/div_grad/tuple/control_dependency'
p247
sI247
S'import/train/gradients/cross_entropy/total/sparse_softmax_cross_entropy_loss/div_grad/tuple/control_dependency_1'
p248
sI248
S'import/train/gradients/cross_entropy/total/sparse_softmax_cross_entropy_loss/Sum_1_grad/Reshape/shape'
p249
sI249
S'import/train/gradients/cross_entropy/total/sparse_softmax_cross_entropy_loss/Sum_1_grad/Reshape'
p250
sI250
S'import/train/gradients/cross_entropy/total/sparse_softmax_cross_entropy_loss/Sum_1_grad/Tile/multiples'
p251
sI251
S'import/train/gradients/cross_entropy/total/sparse_softmax_cross_entropy_loss/Sum_1_grad/Tile'
p252
sI252
S'import/train/gradients/cross_entropy/total/sparse_softmax_cross_entropy_loss/Select_grad/zeros_like'
p253
sI253
S'import/train/gradients/cross_entropy/total/sparse_softmax_cross_entropy_loss/Select_grad/Select'
p254
sI254
S'import/train/gradients/cross_entropy/total/sparse_softmax_cross_entropy_loss/Select_grad/Select_1'
p255
sI255
S'import/train/gradients/cross_entropy/total/sparse_softmax_cross_entropy_loss/Select_grad/tuple/group_deps'
p256
sI256
S'import/train/gradients/cross_entropy/total/sparse_softmax_cross_entropy_loss/Select_grad/tuple/control_dependency'
p257
sI257
S'import/train/gradients/cross_entropy/total/sparse_softmax_cross_entropy_loss/Select_grad/tuple/control_dependency_1'
p258
sI258
S'import/train/gradients/cross_entropy/total/sparse_softmax_cross_entropy_loss/Sum_grad/Reshape/shape'
p259
sI259
S'import/train/gradients/cross_entropy/total/sparse_softmax_cross_entropy_loss/Sum_grad/Reshape'
p260
sI260
S'import/train/gradients/cross_entropy/total/sparse_softmax_cross_entropy_loss/Sum_grad/Shape'
p261
sI261
S'import/train/gradients/cross_entropy/total/sparse_softmax_cross_entropy_loss/Sum_grad/Tile'
p262
sI262
S'import/train/gradients/cross_entropy/total/sparse_softmax_cross_entropy_loss/Mul_grad/Shape'
p263
sI263
S'import/train/gradients/cross_entropy/total/sparse_softmax_cross_entropy_loss/Mul_grad/Shape_1'
p264
sI264
S'import/train/gradients/cross_entropy/total/sparse_softmax_cross_entropy_loss/Mul_grad/BroadcastGradientArgs'
p265
sI265
S'import/train/gradients/cross_entropy/total/sparse_softmax_cross_entropy_loss/Mul_grad/mul'
p266
sI266
S'import/train/gradients/cross_entropy/total/sparse_softmax_cross_entropy_loss/Mul_grad/Sum'
p267
sI267
S'import/train/gradients/cross_entropy/total/sparse_softmax_cross_entropy_loss/Mul_grad/Reshape'
p268
sI268
S'import/train/gradients/cross_entropy/total/sparse_softmax_cross_entropy_loss/Mul_grad/mul_1'
p269
sI269
S'import/train/gradients/cross_entropy/total/sparse_softmax_cross_entropy_loss/Mul_grad/Sum_1'
p270
sI270
S'import/train/gradients/cross_entropy/total/sparse_softmax_cross_entropy_loss/Mul_grad/Reshape_1'
p271
sI271
S'import/train/gradients/cross_entropy/total/sparse_softmax_cross_entropy_loss/Mul_grad/tuple/group_deps'
p272
sI272
S'import/train/gradients/cross_entropy/total/sparse_softmax_cross_entropy_loss/Mul_grad/tuple/control_dependency'
p273
sI273
S'import/train/gradients/cross_entropy/total/sparse_softmax_cross_entropy_loss/Mul_grad/tuple/control_dependency_1'
p274
sI274
S'import/train/gradients/cross_entropy/total/sparse_softmax_cross_entropy_loss/num_present_grad/Reshape/shape'
p275
sI275
S'import/train/gradients/cross_entropy/total/sparse_softmax_cross_entropy_loss/num_present_grad/Reshape'
p276
sI276
S'import/train/gradients/cross_entropy/total/sparse_softmax_cross_entropy_loss/num_present_grad/Shape'
p277
sI277
S'import/train/gradients/cross_entropy/total/sparse_softmax_cross_entropy_loss/num_present_grad/Tile'
p278
sI278
S'import/train/gradients/cross_entropy/total/sparse_softmax_cross_entropy_loss/num_present/broadcast_weights_grad/Shape'
p279
sI279
S'import/train/gradients/cross_entropy/total/sparse_softmax_cross_entropy_loss/num_present/broadcast_weights_grad/Shape_1'
p280
sI280
S'import/train/gradients/cross_entropy/total/sparse_softmax_cross_entropy_loss/num_present/broadcast_weights_grad/BroadcastGradientArgs'
p281
sI281
S'import/train/gradients/cross_entropy/total/sparse_softmax_cross_entropy_loss/num_present/broadcast_weights_grad/mul'
p282
sI282
S'import/train/gradients/cross_entropy/total/sparse_softmax_cross_entropy_loss/num_present/broadcast_weights_grad/Sum'
p283
sI283
S'import/train/gradients/cross_entropy/total/sparse_softmax_cross_entropy_loss/num_present/broadcast_weights_grad/Reshape'
p284
sI284
S'import/train/gradients/cross_entropy/total/sparse_softmax_cross_entropy_loss/num_present/broadcast_weights_grad/mul_1'
p285
sI285
S'import/train/gradients/cross_entropy/total/sparse_softmax_cross_entropy_loss/num_present/broadcast_weights_grad/Sum_1'
p286
sI286
S'import/train/gradients/cross_entropy/total/sparse_softmax_cross_entropy_loss/num_present/broadcast_weights_grad/Reshape_1'
p287
sI287
S'import/train/gradients/cross_entropy/total/sparse_softmax_cross_entropy_loss/num_present/broadcast_weights_grad/tuple/group_deps'
p288
sI288
S'import/train/gradients/cross_entropy/total/sparse_softmax_cross_entropy_loss/num_present/broadcast_weights_grad/tuple/control_dependency'
p289
sI289
S'import/train/gradients/cross_entropy/total/sparse_softmax_cross_entropy_loss/num_present/broadcast_weights_grad/tuple/control_dependency_1'
p290
sI290
S'import/train/gradients/cross_entropy/total/sparse_softmax_cross_entropy_loss/num_present/broadcast_weights/ones_like_grad/Const'
p291
sI291
S'import/train/gradients/cross_entropy/total/sparse_softmax_cross_entropy_loss/num_present/broadcast_weights/ones_like_grad/Sum'
p292
sI292
S'import/train/gradients/zeros_like'
p293
sI293
S'import/train/gradients/cross_entropy/total/sparse_softmax_cross_entropy_loss/xentropy/xentropy_grad/PreventGradient'
p294
sI294
S'import/train/gradients/cross_entropy/total/sparse_softmax_cross_entropy_loss/xentropy/xentropy_grad/ExpandDims/dim'
p295
sI295
S'import/train/gradients/cross_entropy/total/sparse_softmax_cross_entropy_loss/xentropy/xentropy_grad/ExpandDims'
p296
sI296
S'import/train/gradients/cross_entropy/total/sparse_softmax_cross_entropy_loss/xentropy/xentropy_grad/mul'
p297
sI297
S'import/train/gradients/layer2/Wx_plus_b/add_grad/Shape'
p298
sI298
S'import/train/gradients/layer2/Wx_plus_b/add_grad/Shape_1'
p299
sI299
S'import/train/gradients/layer2/Wx_plus_b/add_grad/BroadcastGradientArgs'
p300
sI300
S'import/train/gradients/layer2/Wx_plus_b/add_grad/Sum'
p301
sI301
S'import/train/gradients/layer2/Wx_plus_b/add_grad/Reshape'
p302
sI302
S'import/train/gradients/layer2/Wx_plus_b/add_grad/Sum_1'
p303
sI303
S'import/train/gradients/layer2/Wx_plus_b/add_grad/Reshape_1'
p304
sI304
S'import/train/gradients/layer2/Wx_plus_b/add_grad/tuple/group_deps'
p305
sI305
S'import/train/gradients/layer2/Wx_plus_b/add_grad/tuple/control_dependency'
p306
sI306
S'import/train/gradients/layer2/Wx_plus_b/add_grad/tuple/control_dependency_1'
p307
sI307
S'import/train/gradients/layer2/Wx_plus_b/MatMul_grad/MatMul'
p308
sI308
S'import/train/gradients/layer2/Wx_plus_b/MatMul_grad/MatMul_1'
p309
sI309
S'import/train/gradients/layer2/Wx_plus_b/MatMul_grad/tuple/group_deps'
p310
sI310
S'import/train/gradients/layer2/Wx_plus_b/MatMul_grad/tuple/control_dependency'
p311
sI311
S'import/train/gradients/layer2/Wx_plus_b/MatMul_grad/tuple/control_dependency_1'
p312
sI312
S'import/train/gradients/dropout/dropout/mul_grad/Shape'
p313
sI313
S'import/train/gradients/dropout/dropout/mul_grad/Shape_1'
p314
sI314
S'import/train/gradients/dropout/dropout/mul_grad/BroadcastGradientArgs'
p315
sI315
S'import/train/gradients/dropout/dropout/mul_grad/mul'
p316
sI316
S'import/train/gradients/dropout/dropout/mul_grad/Sum'
p317
sI317
S'import/train/gradients/dropout/dropout/mul_grad/Reshape'
p318
sI318
S'import/train/gradients/dropout/dropout/mul_grad/mul_1'
p319
sI319
S'import/train/gradients/dropout/dropout/mul_grad/Sum_1'
p320
sI320
S'import/train/gradients/dropout/dropout/mul_grad/Reshape_1'
p321
sI321
S'import/train/gradients/dropout/dropout/mul_grad/tuple/group_deps'
p322
sI322
S'import/train/gradients/dropout/dropout/mul_grad/tuple/control_dependency'
p323
sI323
S'import/train/gradients/dropout/dropout/mul_grad/tuple/control_dependency_1'
p324
sI324
S'import/train/gradients/dropout/dropout/div_grad/Shape'
p325
sI325
S'import/train/gradients/dropout/dropout/div_grad/Shape_1'
p326
sI326
S'import/train/gradients/dropout/dropout/div_grad/BroadcastGradientArgs'
p327
sI327
S'import/train/gradients/dropout/dropout/div_grad/RealDiv'
p328
sI328
S'import/train/gradients/dropout/dropout/div_grad/Sum'
p329
sI329
S'import/train/gradients/dropout/dropout/div_grad/Reshape'
p330
sI330
S'import/train/gradients/dropout/dropout/div_grad/Neg'
p331
sI331
S'import/train/gradients/dropout/dropout/div_grad/RealDiv_1'
p332
sI332
S'import/train/gradients/dropout/dropout/div_grad/RealDiv_2'
p333
sI333
S'import/train/gradients/dropout/dropout/div_grad/mul'
p334
sI334
S'import/train/gradients/dropout/dropout/div_grad/Sum_1'
p335
sI335
S'import/train/gradients/dropout/dropout/div_grad/Reshape_1'
p336
sI336
S'import/train/gradients/dropout/dropout/div_grad/tuple/group_deps'
p337
sI337
S'import/train/gradients/dropout/dropout/div_grad/tuple/control_dependency'
p338
sI338
S'import/train/gradients/dropout/dropout/div_grad/tuple/control_dependency_1'
p339
sI339
S'import/train/gradients/layer1/activation_grad/ReluGrad'
p340
sI340
S'import/train/gradients/layer1/Wx_plus_b/add_grad/Shape'
p341
sI341
S'import/train/gradients/layer1/Wx_plus_b/add_grad/Shape_1'
p342
sI342
S'import/train/gradients/layer1/Wx_plus_b/add_grad/BroadcastGradientArgs'
p343
sI343
S'import/train/gradients/layer1/Wx_plus_b/add_grad/Sum'
p344
sI344
S'import/train/gradients/layer1/Wx_plus_b/add_grad/Reshape'
p345
sI345
S'import/train/gradients/layer1/Wx_plus_b/add_grad/Sum_1'
p346
sI346
S'import/train/gradients/layer1/Wx_plus_b/add_grad/Reshape_1'
p347
sI347
S'import/train/gradients/layer1/Wx_plus_b/add_grad/tuple/group_deps'
p348
sI348
S'import/train/gradients/layer1/Wx_plus_b/add_grad/tuple/control_dependency'
p349
sI349
S'import/train/gradients/layer1/Wx_plus_b/add_grad/tuple/control_dependency_1'
p350
sI350
S'import/train/gradients/layer1/Wx_plus_b/MatMul_grad/MatMul'
p351
sI351
S'import/train/gradients/layer1/Wx_plus_b/MatMul_grad/MatMul_1'
p352
sI352
S'import/train/gradients/layer1/Wx_plus_b/MatMul_grad/tuple/group_deps'
p353
sI353
S'import/train/gradients/layer1/Wx_plus_b/MatMul_grad/tuple/control_dependency'
p354
sI354
S'import/train/gradients/layer1/Wx_plus_b/MatMul_grad/tuple/control_dependency_1'
p355
sI355
S'import/train/beta1_power/initial_value'
p356
sI356
S'import/train/beta1_power'
p357
sI357
S'import/train/beta1_power/Assign'
p358
sI358
S'import/train/beta1_power/read'
p359
sI359
S'import/train/beta2_power/initial_value'
p360
sI360
S'import/train/beta2_power'
p361
sI361
S'import/train/beta2_power/Assign'
p362
sI362
S'import/train/beta2_power/read'
p363
sI363
S'import/layer1/weights/Variable/Adam/Initializer/zeros'
p364
sI364
S'import/layer1/weights/Variable/Adam'
p365
sI365
S'import/layer1/weights/Variable/Adam/Assign'
p366
sI366
S'import/layer1/weights/Variable/Adam/read'
p367
sI367
S'import/layer1/weights/Variable/Adam_1/Initializer/zeros'
p368
sI368
S'import/layer1/weights/Variable/Adam_1'
p369
sI369
S'import/layer1/weights/Variable/Adam_1/Assign'
p370
sI370
S'import/layer1/weights/Variable/Adam_1/read'
p371
sI371
S'import/layer1/biases/Variable/Adam/Initializer/zeros'
p372
sI372
S'import/layer1/biases/Variable/Adam'
p373
sI373
S'import/layer1/biases/Variable/Adam/Assign'
p374
sI374
S'import/layer1/biases/Variable/Adam/read'
p375
sI375
S'import/layer1/biases/Variable/Adam_1/Initializer/zeros'
p376
sI376
S'import/layer1/biases/Variable/Adam_1'
p377
sI377
S'import/layer1/biases/Variable/Adam_1/Assign'
p378
sI378
S'import/layer1/biases/Variable/Adam_1/read'
p379
sI379
S'import/layer2/weights/Variable/Adam/Initializer/zeros'
p380
sI380
S'import/layer2/weights/Variable/Adam'
p381
sI381
S'import/layer2/weights/Variable/Adam/Assign'
p382
sI382
S'import/layer2/weights/Variable/Adam/read'
p383
sI383
S'import/layer2/weights/Variable/Adam_1/Initializer/zeros'
p384
sI384
S'import/layer2/weights/Variable/Adam_1'
p385
sI385
S'import/layer2/weights/Variable/Adam_1/Assign'
p386
sI386
S'import/layer2/weights/Variable/Adam_1/read'
p387
sI387
S'import/layer2/biases/Variable/Adam/Initializer/zeros'
p388
sI388
S'import/layer2/biases/Variable/Adam'
p389
sI389
S'import/layer2/biases/Variable/Adam/Assign'
p390
sI390
S'import/layer2/biases/Variable/Adam/read'
p391
sI391
S'import/layer2/biases/Variable/Adam_1/Initializer/zeros'
p392
sI392
S'import/layer2/biases/Variable/Adam_1'
p393
sI393
S'import/layer2/biases/Variable/Adam_1/Assign'
p394
sI394
S'import/layer2/biases/Variable/Adam_1/read'
p395
sI395
S'import/train/Adam/learning_rate'
p396
sI396
S'import/train/Adam/beta1'
p397
sI397
S'import/train/Adam/beta2'
p398
sI398
S'import/train/Adam/epsilon'
p399
sI399
S'import/train/Adam/update_layer1/weights/Variable/ApplyAdam'
p400
sI400
S'import/train/Adam/update_layer1/biases/Variable/ApplyAdam'
p401
sI401
S'import/train/Adam/update_layer2/weights/Variable/ApplyAdam'
p402
sI402
S'import/train/Adam/update_layer2/biases/Variable/ApplyAdam'
p403
sI403
S'import/train/Adam/mul'
p404
sI404
S'import/train/Adam/Assign'
p405
sI405
S'import/train/Adam/mul_1'
p406
sI406
S'import/train/Adam/Assign_1'
p407
sI407
S'import/train/Adam'
p408
sI408
S'import/accuracy/correct_prediction/ArgMax/dimension'
p409
sI409
S'import/accuracy/correct_prediction/ArgMax'
p410
sI410
S'import/accuracy/correct_prediction/Equal'
p411
sI411
S'import/accuracy/accuracy/Cast'
p412
sI412
S'import/accuracy/accuracy/Const'
p413
sI413
S'import/accuracy/accuracy/Mean'
p414
sI414
S'import/accuracy_1/tags'
p415
sI415
S'import/accuracy_1'
p416
sI416
S'import/Merge/MergeSummary'
p417
s.