(dp0
S'import/cross_entropy/total/sparse_softmax_cross_entropy_loss/num_present/broadcast_weights/assert_broadcastable/weights/rank'
p1
I199
sS'import/train/gradients/cross_entropy/total/sparse_softmax_cross_entropy_loss/Mul_grad/Sum_1'
p2
I269
sS'import/layer2/weights/Variable/Adam/Initializer/zeros'
p3
I379
sS'import/cross_entropy/total/sparse_softmax_cross_entropy_loss/assert_broadcastable/static_scalar_check_success'
p4
I187
sS'import/train/gradients/layer1/Wx_plus_b/add_grad/Sum'
p5
I343
sS'import/layer1/weights/summaries/mean/tags'
p6
I20
sS'import/layer1/weights/summaries/Max'
p7
I33
sS'import/cross_entropy/total/sparse_softmax_cross_entropy_loss/Greater'
p8
I212
sS'import/layer1/biases/summaries/stddev/Sqrt'
p9
I60
sS'import/train/gradients/cross_entropy/total/sparse_softmax_cross_entropy_loss/Sum_grad/Shape'
p10
I260
sS'import/train/gradients/cross_entropy/total/sparse_softmax_cross_entropy_loss/num_present/broadcast_weights_grad/tuple/group_deps'
p11
I287
sS'import/train/gradients/dropout/dropout/div_grad/Sum_1'
p12
I334
sS'import/layer1/biases/Variable'
p13
I46
sS'import/cross_entropy/total/sparse_softmax_cross_entropy_loss/Select'
p14
I218
sS'import/layer1/weights/summaries/min'
p15
I42
sS'import/layer1/weights/summaries/min/tags'
p16
I41
sS'import/train/Adam/epsilon'
p17
I398
sS'import/train/gradients/cross_entropy/total/sparse_softmax_cross_entropy_loss/num_present/broadcast_weights_grad/BroadcastGradientArgs'
p18
I280
sS'import/train/gradients/cross_entropy/total/sparse_softmax_cross_entropy_loss/Select_grad/tuple/control_dependency_1'
p19
I257
sS'import/layer1/biases/summaries/range_2/start'
p20
I71
sS'import/train/gradients/layer1/Wx_plus_b/add_grad/tuple/group_deps'
p21
I347
sS'import/train/gradients/cross_entropy/total/sparse_softmax_cross_entropy_loss/Mul_grad/mul_1'
p22
I268
sS'import/cross_entropy/total/sparse_softmax_cross_entropy_loss/xentropy/Shape'
p23
I181
sS'import/train/gradients/layer2/Wx_plus_b/add_grad/Reshape'
p24
I301
sS'import/layer2/weights/summaries/range/delta'
p25
I111
sS'import/train/gradients/dropout/dropout/mul_grad/Reshape_1'
p26
I320
sS'import/layer2/biases/summaries/max/tags'
p27
I162
sS'import/accuracy/accuracy/Cast'
p28
I411
sS'import/train/gradients/cross_entropy/total/sparse_softmax_cross_entropy_loss/Mul_grad/mul'
p29
I265
sS'import/train/gradients/cross_entropy/total/sparse_softmax_cross_entropy_loss/num_present/broadcast_weights_grad/mul'
p30
I281
sS'import/train/gradients/layer1/Wx_plus_b/add_grad/Sum_1'
p31
I345
sS'import/train/gradients/dropout/dropout/div_grad/Neg'
p32
I330
sS'import/layer1/weights/summaries/range_1/start'
p33
I30
sS'import/layer2/weights/summaries/max/tags'
p34
I128
sS'import/layer1/biases/summaries/histogram'
p35
I78
sS'import/train/gradients/cross_entropy/total/sparse_softmax_cross_entropy_loss/Mul_grad/tuple/group_deps'
p36
I271
sS'import/layer2/weights/summaries/mean/tags'
p37
I114
sS'import/train/gradients/cross_entropy/total/sparse_softmax_cross_entropy_loss/num_present/broadcast_weights/ones_like_grad/Const'
p38
I290
sS'import/train/beta1_power/initial_value'
p39
I355
sS'import/layer2/biases/Variable/Adam_1/read'
p40
I394
sS'import/train/gradients/cross_entropy/total/sparse_softmax_cross_entropy_loss/div_grad/RealDiv_2'
p41
I241
sS'import/train/gradients/cross_entropy/total/sparse_softmax_cross_entropy_loss/div_grad/RealDiv_1'
p42
I240
sS'import/layer1/biases/summaries/range/delta'
p43
I51
sS'import/train/gradients/cross_entropy/total/sparse_softmax_cross_entropy_loss/num_present/broadcast_weights_grad/Shape'
p44
I278
sS'import/layer1/weights/summaries/mean'
p45
I21
sS'import/layer2/biases/summaries/histogram'
p46
I172
sS'import/cross_entropy/total/sparse_softmax_cross_entropy_loss/Sum_1'
p47
I210
sS'import/train/beta1_power'
p48
I356
sS'import/layer1/Wx_plus_b/MatMul'
p49
I79
sS'import/layer1/Wx_plus_b/pre_activations'
p50
I82
sS'import/train/gradients/layer1/Wx_plus_b/MatMul_grad/MatMul_1'
p51
I351
sS'import/train/gradients/layer2/Wx_plus_b/MatMul_grad/tuple/control_dependency'
p52
I310
sS'import/train/gradients/layer2/Wx_plus_b/add_grad/BroadcastGradientArgs'
p53
I299
sS'import/train/gradients/dropout/dropout/mul_grad/tuple/group_deps'
p54
I321
sS'import/train/gradients/layer2/Wx_plus_b/add_grad/tuple/control_dependency_1'
p55
I306
sS'import/train/beta1_power/Assign'
p56
I357
sS'import/layer2/biases/Variable/Assign'
p57
I141
sS'import/layer1/biases/Variable/Adam_1'
p58
I376
sS'import/train/gradients/cross_entropy/total/sparse_softmax_cross_entropy_loss/num_present/broadcast_weights_grad/Reshape'
p59
I283
sS'import/layer2/weights/truncated_normal/mul'
p60
I104
sS'import/layer2/weights/summaries/range_2/start'
p61
I131
sS'import/train/gradients/dropout/dropout/div_grad/tuple/group_deps'
p62
I336
sS'import/cross_entropy/total/sparse_softmax_cross_entropy_loss/num_present/broadcast_weights/ones_like'
p63
I205
sS'import/layer2/biases/Variable/Adam_1/Initializer/zeros'
p64
I391
sS'import/train/gradients/cross_entropy/total/sparse_softmax_cross_entropy_loss/num_present_grad/Reshape'
p65
I275
sS'import/train/gradients/dropout/dropout/div_grad/Shape_1'
p66
I325
sS'import/train/gradients/cross_entropy/total/sparse_softmax_cross_entropy_loss/div_grad/Shape_1'
p67
I234
sS'import/layer1/activations/tag'
p68
I84
sS'import/accuracy_1/tags'
p69
I414
sS'import/train/Adam/update_layer1/biases/Variable/ApplyAdam'
p70
I400
sS'import/layer1/weights/summaries/histogram'
p71
I44
sS'import/layer2/weights/Variable/Adam/Assign'
p72
I381
sS'import/layer2/weights/Variable/Assign'
p73
I107
sS'import/accuracy/correct_prediction/ArgMax'
p74
I409
sS'import/layer2/weights/summaries/range_1/delta'
p75
I125
sS'import/cross_entropy/total/sparse_softmax_cross_entropy_loss/ones_like/Shape'
p76
I215
sS'import/train/gradients/Const'
p77
I225
sS'import/layer1/weights/summaries/range_1'
p78
I32
sS'import/layer1/weights/summaries/range_2'
p79
I39
sS'import/dropout/dropout/random_uniform/min'
p80
I90
sS'import/cross_entropy/total/sparse_softmax_cross_entropy_loss/Equal/y'
p81
I213
sS'import/layer2/biases/summaries/stddev/Sqrt'
p82
I154
sS'import/layer1/weights/summaries/range_2/start'
p83
I37
sS'import/train/gradients/dropout/dropout/div_grad/tuple/control_dependency'
p84
I337
sS'import/layer1/biases/summaries/stddev/Const'
p85
I58
sS'import/train/gradients/cross_entropy/total/sparse_softmax_cross_entropy_loss/value_grad/zeros_like'
p86
I227
sS'import/cross_entropy/total/sparse_softmax_cross_entropy_loss/zeros_like'
p87
I220
sS'import/dropout/dropout/add'
p88
I96
sS'import/layer2/biases/summaries/range_1/start'
p89
I158
sS'import/train/gradients/layer2/Wx_plus_b/add_grad/Sum_1'
p90
I302
sS'import/layer1/weights/Variable/Adam/read'
p91
I366
sS'import/layer2/weights/summaries/stddev/Const'
p92
I118
sS'import/train/gradients/cross_entropy/total/sparse_softmax_cross_entropy_loss/Select_grad/Select'
p93
I253
sS'import/train/gradients/layer2/Wx_plus_b/add_grad/Shape'
p94
I297
sS'import/layer2/weights/summaries/stddev_1'
p95
I122
sS'import/layer2/biases/summaries/mean/tags'
p96
I148
sS'import/train/gradients/cross_entropy/total/sparse_softmax_cross_entropy_loss/xentropy/xentropy_grad/PreventGradient'
p97
I293
sS'import/layer1/biases/summaries/Mean'
p98
I53
sS'import/layer1/activations'
p99
I85
sS'import/layer1/biases/summaries/Min'
p100
I74
sS'import/layer2/weights/Variable/Adam_1'
p101
I384
sS'import/train/gradients/layer2/Wx_plus_b/add_grad/Reshape_1'
p102
I303
sS'import/train/gradients/dropout/dropout/mul_grad/mul_1'
p103
I318
sS'import/layer2/biases/Variable/read'
p104
I142
sS'import/layer2/weights/summaries/Max'
p105
I127
sS'import/layer2/biases/summaries/range_1/delta'
p106
I159
sS'import/train/gradients/layer1/activation_grad/ReluGrad'
p107
I339
sS'import/train/gradients/cross_entropy/total/sparse_softmax_cross_entropy_loss/div_grad/Sum_1'
p108
I243
sS'import/layer1/biases/summaries/range_2/delta'
p109
I72
sS'import/train/gradients/dropout/dropout/div_grad/BroadcastGradientArgs'
p110
I326
sS'import/cross_entropy/total/sparse_softmax_cross_entropy_loss/num_present/broadcast_weights/assert_broadcastable/weights/shape'
p111
I198
sS'import/cross_entropy/total/sparse_softmax_cross_entropy_loss/num_present/broadcast_weights/assert_broadcastable/values/shape'
p112
I200
sS'import/train/gradients/layer1/Wx_plus_b/add_grad/tuple/control_dependency'
p113
I348
sS'import/layer1/biases/Variable/Adam_1/Initializer/zeros'
p114
I375
sS'import/layer1/biases/summaries/Rank_1'
p115
I63
sS'import/layer1/weights/summaries/range_2/delta'
p116
I38
sS'import/train/gradients/dropout/dropout/div_grad/Shape'
p117
I324
sS'import/layer2/biases/summaries/stddev_1/tags'
p118
I155
sS'import/dropout/Placeholder'
p119
I86
sS'import/layer1/weights/summaries/stddev/Const'
p120
I24
sS'import/layer1/weights/Variable/read'
p121
I14
sS'import/train/gradients/cross_entropy/total/sparse_softmax_cross_entropy_loss/num_present/broadcast_weights_grad/Sum'
p122
I282
sS'import/layer1/biases/summaries/max/tags'
p123
I68
sS'import/cross_entropy/total/sparse_softmax_cross_entropy_loss/assert_broadcastable/weights/shape'
p124
I183
sS'import/layer2/weights/summaries/stddev/Sqrt'
p125
I120
sS'import/layer2/weights/Variable/Adam/read'
p126
I382
sS'import/layer1/biases/Const'
p127
I45
sS'import/layer1/Wx_plus_b/add'
p128
I80
sS'import/cross_entropy/total/sparse_softmax_cross_entropy_loss/num_present/Equal/y'
p129
I191
sS'import/layer1/weights/summaries/stddev/Mean'
p130
I25
sS'import/layer2/biases/summaries/range_2/start'
p131
I165
sS'import/cross_entropy/total/sparse_softmax_cross_entropy_loss/Equal'
p132
I214
sS'import/layer2/biases/summaries/range/start'
p133
I144
sS'import/layer1/biases/Variable/Adam_1/Assign'
p134
I377
sS'import/layer1/weights/summaries/Rank'
p135
I15
sS'import/cross_entropy/total/sparse_softmax_cross_entropy_loss/Sum'
p136
I190
sS'import/train/gradients/cross_entropy/total/sparse_softmax_cross_entropy_loss/div_grad/tuple/control_dependency_1'
p137
I247
sS'import/dropout/dropout/div'
p138
I98
sS'import/train/gradients/layer2/Wx_plus_b/add_grad/Shape_1'
p139
I298
sS'import/train/gradients/cross_entropy/total/sparse_softmax_cross_entropy_loss/value_grad/tuple/group_deps'
p140
I230
sS'import/layer1/weights/Variable'
p141
I12
sS'import/cross_entropy/total/sparse_softmax_cross_entropy_loss/xentropy/xentropy'
p142
I182
sS'import/train/Adam/mul'
p143
I403
sS'import/layer1/weights/summaries/stddev/Sqrt'
p144
I26
sS'import/train/gradients/cross_entropy/total/sparse_softmax_cross_entropy_loss/value_grad/Select'
p145
I228
sS'import/train/gradients/Shape'
p146
I224
sS'import/train/beta2_power/Assign'
p147
I361
sS'import/train/gradients/cross_entropy/total/sparse_softmax_cross_entropy_loss/Mul_grad/Shape_1'
p148
I263
sS'import/layer1/biases/summaries/histogram/tag'
p149
I77
sS'import/layer1/biases/Variable/Adam/Assign'
p150
I373
sS'import/layer1/biases/summaries/min'
p151
I76
sS'import/layer2/weights/summaries/range'
p152
I112
sS'import/cross_entropy_1/tags'
p153
I222
sS'import/cross_entropy/total/sparse_softmax_cross_entropy_loss/num_present/Const'
p154
I207
sS'import/train/gradients/cross_entropy/total/sparse_softmax_cross_entropy_loss/xentropy/xentropy_grad/ExpandDims/dim'
p155
I294
sS'import/cross_entropy/total/sparse_softmax_cross_entropy_loss/div'
p156
I219
sS'import/layer2/biases/summaries/stddev/Const'
p157
I152
sS'import/train/gradients/layer2/Wx_plus_b/add_grad/tuple/group_deps'
p158
I304
sS'import/layer1/biases/summaries/range_2'
p159
I73
sS'import/layer2/biases/summaries/stddev_1'
p160
I156
sS'import/layer1/biases/summaries/range_1'
p161
I66
sS'import/layer2/weights/summaries/stddev/Mean'
p162
I119
sS'import/layer1/weights/truncated_normal/stddev'
p163
I8
sS'import/dropout/dropout/random_uniform'
p164
I95
sS'import/train/gradients/dropout/dropout/div_grad/RealDiv_1'
p165
I331
sS'import/cross_entropy/total/sparse_softmax_cross_entropy_loss/num_present'
p166
I208
sS'import/train/gradients/dropout/dropout/div_grad/RealDiv_2'
p167
I332
sS'import/train/gradients/layer1/Wx_plus_b/add_grad/Shape_1'
p168
I341
sS'import/train/gradients/cross_entropy/total/sparse_softmax_cross_entropy_loss/num_present/broadcast_weights_grad/Sum_1'
p169
I285
sS'import/train/gradients/cross_entropy/total/sparse_softmax_cross_entropy_loss/xentropy/xentropy_grad/mul'
p170
I296
sS'import/train/gradients/cross_entropy/total/sparse_softmax_cross_entropy_loss/Mul_grad/Sum'
p171
I266
sS'import/layer1/weights/Variable/Adam_1/Initializer/zeros'
p172
I367
sS'import/train/gradients/cross_entropy/total/sparse_softmax_cross_entropy_loss/div_grad/BroadcastGradientArgs'
p173
I235
sS'import/train/gradients/dropout/dropout/mul_grad/Shape_1'
p174
I313
sS'import/layer1/weights/Variable/Adam_1'
p175
I368
sS'import/layer2/biases/summaries/stddev/sub'
p176
I150
sS'import/train/gradients/cross_entropy/total/sparse_softmax_cross_entropy_loss/num_present/broadcast_weights_grad/Shape_1'
p177
I279
sS'import/train/gradients/zeros_like'
p178
I292
sS'import/cross_entropy/total/sparse_softmax_cross_entropy_loss/num_present/broadcast_weights'
p179
I206
sS'import/layer1/biases/Variable/read'
p180
I48
sS'import/train/gradients/cross_entropy/total/sparse_softmax_cross_entropy_loss/num_present/broadcast_weights_grad/Reshape_1'
p181
I286
sS'import/layer2/Wx_plus_b/pre_activations/tag'
p182
I175
sS'import/layer2/weights/truncated_normal/shape'
p183
I100
sS'import/cross_entropy/total/sparse_softmax_cross_entropy_loss/assert_broadcastable/values/shape'
p184
I185
sS'import/train/gradients/cross_entropy/total/sparse_softmax_cross_entropy_loss/value_grad/Select_1'
p185
I229
sS'import/train/gradients/cross_entropy/total/sparse_softmax_cross_entropy_loss/Sum_grad/Reshape'
p186
I259
sS'import/dropout/dropout/Floor'
p187
I97
sS'import/layer1/weights/summaries/Mean'
p188
I19
sS'import/layer2/weights/summaries/mean'
p189
I115
sS'import/layer2/biases/Variable/Adam/read'
p190
I390
sS'import/train/gradients/cross_entropy/total/sparse_softmax_cross_entropy_loss/div_grad/mul'
p191
I242
sS'import/accuracy/accuracy/Const'
p192
I412
sS'import/train/beta2_power/read'
p193
I362
sS'import/dropout/dropout/random_uniform/mul'
p194
I94
sS'import/layer2/weights/Variable'
p195
I106
sS'import/train/Adam/beta2'
p196
I397
sS'import/train/Adam/beta1'
p197
I396
sS'import/train/gradients/cross_entropy/total/sparse_softmax_cross_entropy_loss/Sum_1_grad/Tile'
p198
I251
sS'import/layer1/biases/summaries/stddev/sub'
p199
I56
sS'import/layer1/biases/summaries/Max'
p200
I67
sS'import/train/gradients/layer2/Wx_plus_b/add_grad/Sum'
p201
I300
sS'import/layer1/biases/summaries/mean/tags'
p202
I54
sS'import/train/gradients/cross_entropy/total/sparse_softmax_cross_entropy_loss/value_grad/tuple/control_dependency'
p203
I231
sS'import/train/gradients/cross_entropy/total/sparse_softmax_cross_entropy_loss/num_present_grad/Tile'
p204
I277
sS'import/train/gradients/cross_entropy/total/sparse_softmax_cross_entropy_loss/Sum_1_grad/Reshape/shape'
p205
I248
sS'import/dropout/dropout/mul'
p206
I99
sS'import/layer2/weights/summaries/range_2'
p207
I133
sS'import/layer2/weights/summaries/range_1'
p208
I126
sS'import/train/gradients/cross_entropy/total/sparse_softmax_cross_entropy_loss/div_grad/Neg'
p209
I239
sS'import/layer1/biases/summaries/min/tags'
p210
I75
sS'import/train/gradients/dropout/dropout/mul_grad/Sum_1'
p211
I319
sS'import/layer1/biases/Variable/Adam'
p212
I372
sS'import/layer2/weights/summaries/Min'
p213
I134
sS'import/layer2/weights/truncated_normal'
p214
I105
sS'import/cross_entropy/total/sparse_softmax_cross_entropy_loss/num_present/Select'
p215
I197
sS'import/train/Adam'
p216
I407
sS'import/layer2/biases/Variable/Adam'
p217
I388
sS'import/layer2/biases/summaries/min'
p218
I170
sS'import/layer2/biases/Variable/Adam_1'
p219
I392
sS'import/layer1/biases/summaries/range'
p220
I52
sS'import/train/gradients/dropout/dropout/mul_grad/tuple/control_dependency'
p221
I322
sS'import/train/gradients/layer2/Wx_plus_b/MatMul_grad/tuple/control_dependency_1'
p222
I311
sS'import/train/gradients/layer1/Wx_plus_b/MatMul_grad/tuple/group_deps'
p223
I352
sS'import/accuracy/accuracy/Mean'
p224
I413
sS'import/layer1/biases/summaries/Rank'
p225
I49
sS'import/layer1/weights/Variable/Adam'
p226
I364
sS'import/cross_entropy/total/sparse_softmax_cross_entropy_loss/ones_like/Const'
p227
I216
sS'import/cross_entropy/total/sparse_softmax_cross_entropy_loss/ones_like'
p228
I217
sS'import/cross_entropy/total/sparse_softmax_cross_entropy_loss/assert_broadcastable/values/rank'
p229
I186
sS'import/layer2/weights/summaries/Rank'
p230
I109
sS'import/layer1/biases/summaries/range_1/delta'
p231
I65
sS'import/accuracy_1'
p232
I415
sS'import/layer1/biases/summaries/mean'
p233
I55
sS'import/layer1/biases/summaries/Rank_2'
p234
I70
sS'import/train/Adam/update_layer2/biases/Variable/ApplyAdam'
p235
I402
sS'import/layer2/weights/Variable/read'
p236
I108
sS'import/layer1/biases/summaries/stddev_1'
p237
I62
sS'import/input_reshape/input/tag'
p238
I4
sS'import/cross_entropy/total/sparse_softmax_cross_entropy_loss/Const_1'
p239
I189
sS'import/cross_entropy/total/sparse_softmax_cross_entropy_loss/Const_2'
p240
I209
sS'import/train/gradients/dropout/dropout/mul_grad/Reshape'
p241
I317
sS'import/layer1/weights/truncated_normal/shape'
p242
I6
sS'import/train/gradients/layer2/Wx_plus_b/MatMul_grad/MatMul'
p243
I307
sS'import/layer2/weights/summaries/range_1/start'
p244
I124
sS'import/train/gradients/dropout/dropout/div_grad/Sum'
p245
I328
sS'import/layer2/biases/summaries/Rank'
p246
I143
sS'import/layer2/weights/summaries/max'
p247
I129
sS'import/train/gradients/cross_entropy/total/sparse_softmax_cross_entropy_loss/div_grad/Shape'
p248
I233
sS'import/layer2/weights/truncated_normal/TruncatedNormal'
p249
I103
sS'import/layer2/weights/summaries/histogram/tag'
p250
I137
sS'import/layer1/biases/summaries/stddev_1/tags'
p251
I61
sS'import/train/gradients/cross_entropy/total/sparse_softmax_cross_entropy_loss/Select_grad/tuple/control_dependency'
p252
I256
sS'import/train/gradients/cross_entropy/total/sparse_softmax_cross_entropy_loss/Sum_grad/Reshape/shape'
p253
I258
sS'import/cross_entropy/total/sparse_softmax_cross_entropy_loss/assert_broadcastable/weights/rank'
p254
I184
sS'import/train/gradients/layer1/Wx_plus_b/MatMul_grad/tuple/control_dependency'
p255
I353
sS'import/cross_entropy/total/sparse_softmax_cross_entropy_loss/num_present/Equal'
p256
I192
sS'import/train/gradients/cross_entropy/total/sparse_softmax_cross_entropy_loss/div_grad/Reshape_1'
p257
I244
sS'import/layer1/biases/summaries/max'
p258
I69
sS'import/layer2/activation'
p259
I177
sS'import/layer2/biases/summaries/Mean'
p260
I147
sS'import/train/Adam/update_layer1/weights/Variable/ApplyAdam'
p261
I399
sS'import/train/Adam/learning_rate'
p262
I395
sS'import/layer2/biases/Variable/Adam/Assign'
p263
I389
sS'import/train/gradients/dropout/dropout/mul_grad/mul'
p264
I315
sS'import/cross_entropy/total/sparse_softmax_cross_entropy_loss/Greater/y'
p265
I211
sS'import/layer2/biases/Variable'
p266
I140
sS'import/layer2/weights/summaries/histogram'
p267
I138
sS'import/layer1/weights/summaries/stddev/Square'
p268
I23
sS'import/train/gradients/dropout/dropout/mul_grad/Sum'
p269
I316
sS'import/train/gradients/cross_entropy/total/sparse_softmax_cross_entropy_loss/num_present_grad/Shape'
p270
I276
sS'import/layer2/biases/summaries/Min'
p271
I168
sS'import/train/gradients/layer1/Wx_plus_b/add_grad/BroadcastGradientArgs'
p272
I342
sS'import/layer2/biases/summaries/range/delta'
p273
I145
sS'import/train/gradients/cross_entropy/total/sparse_softmax_cross_entropy_loss/Mul_grad/Reshape_1'
p274
I270
sS'import/layer2/biases/summaries/range_1'
p275
I160
sS'import/layer2/weights/truncated_normal/stddev'
p276
I102
sS'import/layer2/biases/Const'
p277
I139
sS'import/train/gradients/cross_entropy/total/sparse_softmax_cross_entropy_loss/Mul_grad/tuple/control_dependency_1'
p278
I273
sS'import/train/gradients/cross_entropy/total/sparse_softmax_cross_entropy_loss/Select_grad/Select_1'
p279
I254
sS'import/layer1/weights/summaries/Rank_1'
p280
I29
sS'import/layer1/weights/summaries/Rank_2'
p281
I36
sS'import/layer1/biases/summaries/stddev/Square'
p282
I57
sS'import/dropout/dropout_keep_probability/tags'
p283
I87
sS'import/train/gradients/dropout/dropout/div_grad/tuple/control_dependency_1'
p284
I338
sS'import/input_reshape/Reshape'
p285
I3
sS'import/layer2/biases/summaries/stddev/Mean'
p286
I153
sS'import/layer2/weights/summaries/stddev/Square'
p287
I117
sS'import/train/gradients/cross_entropy/total/sparse_softmax_cross_entropy_loss/div_grad/Reshape'
p288
I238
sS'import/layer2/weights/Variable/Adam_1/Assign'
p289
I385
sS'import/layer2/biases/summaries/Rank_2'
p290
I164
sS'import/layer2/biases/summaries/Rank_1'
p291
I157
sS'import/layer1/weights/truncated_normal/TruncatedNormal'
p292
I9
sS'import/train/gradients/cross_entropy/total/sparse_softmax_cross_entropy_loss/div_grad/RealDiv'
p293
I236
sS'import/layer2/activations'
p294
I179
sS'import/layer2/Wx_plus_b/pre_activations'
p295
I176
sS'import/train/gradients/cross_entropy/total/sparse_softmax_cross_entropy_loss/num_present/broadcast_weights_grad/mul_1'
p296
I284
sS'import/Merge/MergeSummary'
p297
I416
sS'import/cross_entropy_1'
p298
I223
sS'import/layer1/activation'
p299
I83
sS'import/train/gradients/cross_entropy/total/sparse_softmax_cross_entropy_loss/num_present_grad/Reshape/shape'
p300
I274
sS'import/layer1/weights/summaries/stddev/sub'
p301
I22
sS'import/train/gradients/cross_entropy/total/sparse_softmax_cross_entropy_loss/num_present/broadcast_weights_grad/tuple/control_dependency'
p302
I288
sS'import/layer1/weights/summaries/range_1/delta'
p303
I31
sS'import/train/gradients/dropout/dropout/mul_grad/Shape'
p304
I312
sS'import/train/beta1_power/read'
p305
I358
sS'import/layer1/biases/Variable/Adam/Initializer/zeros'
p306
I371
sS'import/train/Adam/Assign_1'
p307
I406
sS'import/train/gradients/layer1/Wx_plus_b/add_grad/Shape'
p308
I340
sS'import/layer2/weights/Variable/Adam_1/read'
p309
I386
sS'import/train/gradients/cross_entropy/total/sparse_softmax_cross_entropy_loss/num_present/broadcast_weights/ones_like_grad/Sum'
p310
I291
sS'import/accuracy/correct_prediction/Equal'
p311
I410
sS'import/cross_entropy/total/sparse_softmax_cross_entropy_loss/num_present/broadcast_weights/ones_like/Shape'
p312
I203
sS'import/dropout/dropout_keep_probability'
p313
I88
sS'import/train/gradients/cross_entropy/total/sparse_softmax_cross_entropy_loss/Mul_grad/BroadcastGradientArgs'
p314
I264
sS'import/layer1/weights/Variable/Adam_1/read'
p315
I370
sS'import/train/gradients/cross_entropy/total/sparse_softmax_cross_entropy_loss/Mul_grad/tuple/control_dependency'
p316
I272
sS'import/train/gradients/dropout/dropout/mul_grad/tuple/control_dependency_1'
p317
I323
sS'import/train/gradients/cross_entropy/total/sparse_softmax_cross_entropy_loss/num_present/broadcast_weights_grad/tuple/control_dependency_1'
p318
I289
sS'import/layer2/Wx_plus_b/MatMul'
p319
I173
sS'import/cross_entropy/total/sparse_softmax_cross_entropy_loss/value'
p320
I221
sS'import/layer2/weights/summaries/range/start'
p321
I110
sS'import/train/gradients/cross_entropy/total/sparse_softmax_cross_entropy_loss/Sum_1_grad/Reshape'
p322
I249
sS'import/input/y-input'
p323
I1
sS'import/layer2/weights/summaries/stddev_1/tags'
p324
I121
sS'import/layer2/biases/summaries/max'
p325
I163
sS'import/layer2/weights/summaries/Mean'
p326
I113
sS'import/train/gradients/cross_entropy/total/sparse_softmax_cross_entropy_loss/value_grad/tuple/control_dependency_1'
p327
I232
sS'import/dropout/dropout/random_uniform/sub'
p328
I93
sS'import/layer1/weights/Variable/Adam/Assign'
p329
I365
sS'import/layer1/weights/truncated_normal/mul'
p330
I10
sS'import/layer1/weights/Variable/Adam/Initializer/zeros'
p331
I363
sS'import/layer1/biases/summaries/range/start'
p332
I50
sS'import/input_reshape/input'
p333
I5
sS'import/train/gradients/layer1/Wx_plus_b/add_grad/Reshape_1'
p334
I346
sS'import/layer2/weights/summaries/min/tags'
p335
I135
sS'import/layer1/biases/Variable/Adam_1/read'
p336
I378
sS'import/train/gradients/cross_entropy/total/sparse_softmax_cross_entropy_loss/Select_grad/zeros_like'
p337
I252
sS'import/layer2/weights/Variable/Adam_1/Initializer/zeros'
p338
I383
sS'import/input_reshape/Reshape/shape'
p339
I2
sS'import/train/beta2_power'
p340
I360
sS'import/train/gradients/Fill'
p341
I226
sS'import/layer1/biases/Variable/Assign'
p342
I47
sS'import/layer1/weights/truncated_normal/mean'
p343
I7
sS'import/layer2/biases/summaries/histogram/tag'
p344
I171
sS'import/layer2/biases/Variable/Adam/Initializer/zeros'
p345
I387
sS'import/train/gradients/cross_entropy/total/sparse_softmax_cross_entropy_loss/Sum_1_grad/Tile/multiples'
p346
I250
sS'import/layer2/Wx_plus_b/add'
p347
I174
sS'import/layer2/biases/summaries/range_2/delta'
p348
I166
sS'import/train/gradients/layer1/Wx_plus_b/MatMul_grad/MatMul'
p349
I350
sS'import/dropout/dropout/random_uniform/RandomUniform'
p350
I92
sS'import/layer1/weights/truncated_normal'
p351
I11
sS'import/layer1/weights/summaries/histogram/tag'
p352
I43
sS'import/train/gradients/cross_entropy/total/sparse_softmax_cross_entropy_loss/div_grad/tuple/group_deps'
p353
I245
sS'import/cross_entropy/total/sparse_softmax_cross_entropy_loss/num_present/zeros_like'
p354
I193
sS'import/cross_entropy/total/sparse_softmax_cross_entropy_loss/Mul'
p355
I188
sS'import/train/beta2_power/initial_value'
p356
I359
sS'import/layer2/biases/Variable/Adam_1/Assign'
p357
I393
sS'import/cross_entropy/total/sparse_softmax_cross_entropy_loss/num_present/broadcast_weights/assert_broadcastable/values/rank'
p358
I201
sS'import/cross_entropy/total/sparse_softmax_cross_entropy_loss/num_present/ones_like/Shape'
p359
I194
sS'import/layer2/weights/summaries/min'
p360
I136
sS'import/train/gradients/dropout/dropout/div_grad/RealDiv'
p361
I327
sS'import/train/gradients/layer2/Wx_plus_b/MatMul_grad/tuple/group_deps'
p362
I309
sS'import/layer2/biases/summaries/stddev/Square'
p363
I151
sS'import/layer1/weights/summaries/stddev_1'
p364
I28
sS'import/input/x-input'
p365
I0
sS'import/layer2/weights/summaries/Rank_1'
p366
I123
sS'import/layer2/weights/summaries/Rank_2'
p367
I130
sS'import/layer1/weights/summaries/Min'
p368
I40
sS'import/layer2/biases/summaries/range'
p369
I146
sS'import/layer1/weights/summaries/max/tags'
p370
I34
sS'import/train/gradients/cross_entropy/total/sparse_softmax_cross_entropy_loss/Select_grad/tuple/group_deps'
p371
I255
sS'import/cross_entropy/total/sparse_softmax_cross_entropy_loss/num_present/broadcast_weights/ones_like/Const'
p372
I204
sS'import/train/gradients/layer2/Wx_plus_b/add_grad/tuple/control_dependency'
p373
I305
sS'import/train/gradients/dropout/dropout/div_grad/Reshape'
p374
I329
sS'import/layer1/weights/Variable/Assign'
p375
I13
sS'import/train/gradients/layer1/Wx_plus_b/add_grad/Reshape'
p376
I344
sS'import/train/Adam/update_layer2/weights/Variable/ApplyAdam'
p377
I401
sS'import/train/gradients/dropout/dropout/div_grad/Reshape_1'
p378
I335
sS'import/train/gradients/layer1/Wx_plus_b/add_grad/tuple/control_dependency_1'
p379
I349
sS'import/layer2/weights/summaries/stddev/sub'
p380
I116
sS'import/layer1/biases/summaries/range_1/start'
p381
I64
sS'import/cross_entropy/total/sparse_softmax_cross_entropy_loss/num_present/ones_like/Const'
p382
I195
sS'import/train/gradients/layer2/Wx_plus_b/MatMul_grad/MatMul_1'
p383
I308
sS'import/cross_entropy/total/sparse_softmax_cross_entropy_loss/num_present/broadcast_weights/assert_broadcastable/static_scalar_check_success'
p384
I202
sS'import/dropout/dropout/random_uniform/max'
p385
I91
sS'import/layer1/weights/summaries/range'
p386
I18
sS'import/layer2/activations/tag'
p387
I178
sS'import/layer2/biases/summaries/mean'
p388
I149
sS'import/train/Adam/Assign'
p389
I404
sS'import/layer1/biases/Variable/Adam/read'
p390
I374
sS'import/cross_entropy/total/sparse_softmax_cross_entropy_loss/num_present/ones_like'
p391
I196
sS'import/layer1/weights/Variable/Adam_1/Assign'
p392
I369
sS'import/train/gradients/dropout/dropout/mul_grad/BroadcastGradientArgs'
p393
I314
sS'import/layer1/weights/summaries/max'
p394
I35
sS'import/train/gradients/cross_entropy/total/sparse_softmax_cross_entropy_loss/Mul_grad/Reshape'
p395
I267
sS'import/layer2/weights/summaries/range_2/delta'
p396
I132
sS'import/dropout/dropout/Shape'
p397
I89
sS'import/layer2/weights/truncated_normal/mean'
p398
I101
sS'import/layer2/weights/Variable/Adam'
p399
I380
sS'import/layer1/weights/summaries/range/start'
p400
I16
sS'import/layer1/weights/summaries/stddev_1/tags'
p401
I27
sS'import/accuracy/correct_prediction/ArgMax/dimension'
p402
I408
sS'import/train/gradients/cross_entropy/total/sparse_softmax_cross_entropy_loss/xentropy/xentropy_grad/ExpandDims'
p403
I295
sS'import/layer2/biases/summaries/min/tags'
p404
I169
sS'import/train/gradients/dropout/dropout/div_grad/mul'
p405
I333
sS'import/train/gradients/cross_entropy/total/sparse_softmax_cross_entropy_loss/Sum_grad/Tile'
p406
I261
sS'import/cross_entropy/total/sparse_softmax_cross_entropy_loss/Const'
p407
I180
sS'import/layer1/weights/summaries/range/delta'
p408
I17
sS'import/train/gradients/cross_entropy/total/sparse_softmax_cross_entropy_loss/div_grad/Sum'
p409
I237
sS'import/layer1/Wx_plus_b/pre_activations/tag'
p410
I81
sS'import/train/gradients/layer1/Wx_plus_b/MatMul_grad/tuple/control_dependency_1'
p411
I354
sS'import/layer2/biases/summaries/range_2'
p412
I167
sS'import/layer2/biases/summaries/Max'
p413
I161
sS'import/train/gradients/cross_entropy/total/sparse_softmax_cross_entropy_loss/Mul_grad/Shape'
p414
I262
sS'import/layer1/biases/summaries/stddev/Mean'
p415
I59
sS'import/train/Adam/mul_1'
p416
I405
sS'import/train/gradients/cross_entropy/total/sparse_softmax_cross_entropy_loss/div_grad/tuple/control_dependency'
p417
I246
s.