(dp0
S'import/cross_entropy/total/sparse_softmax_cross_entropy_loss/num_present/broadcast_weights/assert_broadcastable/weights/rank'
p1
(lp2
S'CPU'
p3
aS'GPU'
p4
asS'import/train/gradients/cross_entropy/total/sparse_softmax_cross_entropy_loss/Mul_grad/Sum_1'
p5
(lp6
S'CPU'
p7
aS'GPU'
p8
asS'import/layer2/weights/Variable/Adam/Initializer/zeros'
p9
(lp10
S'CPU'
p11
aS'GPU'
p12
asS'import/cross_entropy/total/sparse_softmax_cross_entropy_loss/assert_broadcastable/static_scalar_check_success'
p13
(lp14
S'CPU'
p15
aS'GPU'
p16
asS'import/train/gradients/layer1/Wx_plus_b/add_grad/Sum'
p17
(lp18
S'CPU'
p19
aS'GPU'
p20
asS'import/layer1/weights/summaries/mean/tags'
p21
(lp22
S'CPU'
p23
aS'GPU'
p24
asS'import/layer1/weights/summaries/Max'
p25
(lp26
S'CPU'
p27
aS'GPU'
p28
asS'import/cross_entropy/total/sparse_softmax_cross_entropy_loss/Greater'
p29
(lp30
S'CPU'
p31
aS'GPU'
p32
asS'import/layer1/biases/summaries/stddev/Sqrt'
p33
(lp34
S'CPU'
p35
aS'GPU'
p36
asS'import/train/gradients/cross_entropy/total/sparse_softmax_cross_entropy_loss/Sum_grad/Shape'
p37
(lp38
S'CPU'
p39
aS'GPU'
p40
asS'import/train/gradients/cross_entropy/total/sparse_softmax_cross_entropy_loss/num_present/broadcast_weights_grad/tuple/group_deps'
p41
(lp42
S'CPU'
p43
aS'GPU'
p44
asS'import/train/gradients/dropout/dropout/div_grad/Sum_1'
p45
(lp46
S'CPU'
p47
aS'GPU'
p48
asS'import/layer1/biases/Variable'
p49
(lp50
S'CPU'
p51
aS'GPU'
p52
asS'import/cross_entropy/total/sparse_softmax_cross_entropy_loss/Select'
p53
(lp54
S'CPU'
p55
aS'GPU'
p56
asS'import/layer1/weights/summaries/min'
p57
(lp58
S'CPU'
p59
asS'import/layer1/weights/summaries/min/tags'
p60
(lp61
S'CPU'
p62
aS'GPU'
p63
asS'import/train/Adam/epsilon'
p64
(lp65
S'CPU'
p66
aS'GPU'
p67
asS'import/train/gradients/cross_entropy/total/sparse_softmax_cross_entropy_loss/num_present/broadcast_weights_grad/BroadcastGradientArgs'
p68
(lp69
S'CPU'
p70
aS'GPU'
p71
asS'import/train/gradients/cross_entropy/total/sparse_softmax_cross_entropy_loss/Select_grad/tuple/control_dependency_1'
p72
(lp73
S'CPU'
p74
aS'GPU'
p75
asS'import/layer1/biases/summaries/range_2/start'
p76
(lp77
S'CPU'
p78
aS'GPU'
p79
asS'import/train/gradients/layer1/Wx_plus_b/add_grad/tuple/group_deps'
p80
(lp81
S'CPU'
p82
aS'GPU'
p83
asS'import/train/gradients/cross_entropy/total/sparse_softmax_cross_entropy_loss/Mul_grad/mul_1'
p84
(lp85
S'CPU'
p86
aS'GPU'
p87
asS'import/cross_entropy/total/sparse_softmax_cross_entropy_loss/xentropy/Shape'
p88
(lp89
S'CPU'
p90
aS'GPU'
p91
asS'import/train/gradients/layer2/Wx_plus_b/add_grad/Reshape'
p92
(lp93
S'CPU'
p94
aS'GPU'
p95
asS'import/layer2/weights/summaries/range/delta'
p96
(lp97
S'CPU'
p98
aS'GPU'
p99
asS'import/train/gradients/dropout/dropout/mul_grad/Reshape_1'
p100
(lp101
S'CPU'
p102
aS'GPU'
p103
asS'import/layer2/biases/summaries/max/tags'
p104
(lp105
S'CPU'
p106
aS'GPU'
p107
asS'import/accuracy/accuracy/Cast'
p108
(lp109
S'CPU'
p110
aS'GPU'
p111
asS'import/train/gradients/cross_entropy/total/sparse_softmax_cross_entropy_loss/Mul_grad/mul'
p112
(lp113
S'CPU'
p114
aS'GPU'
p115
asS'import/train/gradients/cross_entropy/total/sparse_softmax_cross_entropy_loss/num_present/broadcast_weights_grad/mul'
p116
(lp117
S'CPU'
p118
aS'GPU'
p119
asS'import/train/gradients/layer1/Wx_plus_b/add_grad/Sum_1'
p120
(lp121
S'CPU'
p122
aS'GPU'
p123
asS'import/train/gradients/dropout/dropout/div_grad/Neg'
p124
(lp125
S'CPU'
p126
aS'GPU'
p127
asS'import/layer1/weights/summaries/range_1/start'
p128
(lp129
S'CPU'
p130
aS'GPU'
p131
asS'import/layer2/weights/summaries/max/tags'
p132
(lp133
S'CPU'
p134
aS'GPU'
p135
asS'import/layer1/biases/summaries/histogram'
p136
(lp137
S'CPU'
p138
asS'import/train/gradients/cross_entropy/total/sparse_softmax_cross_entropy_loss/Mul_grad/tuple/group_deps'
p139
(lp140
S'CPU'
p141
aS'GPU'
p142
asS'import/layer2/weights/summaries/mean/tags'
p143
(lp144
S'CPU'
p145
aS'GPU'
p146
asS'import/train/gradients/cross_entropy/total/sparse_softmax_cross_entropy_loss/num_present/broadcast_weights/ones_like_grad/Const'
p147
(lp148
S'CPU'
p149
aS'GPU'
p150
asS'import/train/beta1_power/initial_value'
p151
(lp152
S'CPU'
p153
aS'GPU'
p154
asS'import/layer2/biases/Variable/Adam_1/read'
p155
(lp156
S'CPU'
p157
aS'GPU'
p158
asS'import/train/gradients/cross_entropy/total/sparse_softmax_cross_entropy_loss/div_grad/RealDiv_2'
p159
(lp160
S'CPU'
p161
aS'GPU'
p162
asS'import/train/gradients/cross_entropy/total/sparse_softmax_cross_entropy_loss/div_grad/RealDiv_1'
p163
(lp164
S'CPU'
p165
aS'GPU'
p166
asS'import/layer1/biases/summaries/range/delta'
p167
(lp168
S'CPU'
p169
aS'GPU'
p170
asS'import/train/gradients/cross_entropy/total/sparse_softmax_cross_entropy_loss/num_present/broadcast_weights_grad/Shape'
p171
(lp172
S'CPU'
p173
aS'GPU'
p174
asS'import/layer1/weights/summaries/mean'
p175
(lp176
S'CPU'
p177
asS'import/layer2/biases/summaries/histogram'
p178
(lp179
S'CPU'
p180
asS'import/cross_entropy/total/sparse_softmax_cross_entropy_loss/Sum_1'
p181
(lp182
S'CPU'
p183
aS'GPU'
p184
asS'import/train/beta1_power'
p185
(lp186
S'CPU'
p187
aS'GPU'
p188
asS'import/layer1/Wx_plus_b/MatMul'
p189
(lp190
S'CPU'
p191
aS"CPU'; label='eigen"
p192
aS'GPU'
p193
aS"GPU'; label='cublas"
p194
asS'import/layer1/Wx_plus_b/pre_activations'
p195
(lp196
S'CPU'
p197
asS'import/train/gradients/layer1/Wx_plus_b/MatMul_grad/MatMul_1'
p198
(lp199
S'CPU'
p200
aS"CPU'; label='eigen"
p201
aS'GPU'
p202
aS"GPU'; label='cublas"
p203
asS'import/train/gradients/layer2/Wx_plus_b/MatMul_grad/tuple/control_dependency'
p204
(lp205
S'CPU'
p206
aS'GPU'
p207
asS'import/train/gradients/layer2/Wx_plus_b/add_grad/BroadcastGradientArgs'
p208
(lp209
S'CPU'
p210
aS'GPU'
p211
asS'import/train/gradients/dropout/dropout/mul_grad/tuple/group_deps'
p212
(lp213
S'CPU'
p214
aS'GPU'
p215
asS'import/train/gradients/layer2/Wx_plus_b/add_grad/tuple/control_dependency_1'
p216
(lp217
S'CPU'
p218
aS'GPU'
p219
asS'import/train/beta1_power/Assign'
p220
(lp221
S'CPU'
p222
aS'GPU'
p223
asS'import/layer2/biases/Variable/Assign'
p224
(lp225
S'CPU'
p226
aS'GPU'
p227
asS'import/layer1/biases/Variable/Adam_1'
p228
(lp229
S'CPU'
p230
aS'GPU'
p231
asS'import/train/gradients/cross_entropy/total/sparse_softmax_cross_entropy_loss/num_present/broadcast_weights_grad/Reshape'
p232
(lp233
S'CPU'
p234
aS'GPU'
p235
asS'import/layer2/weights/truncated_normal/mul'
p236
(lp237
S'CPU'
p238
aS'GPU'
p239
asS'import/layer2/weights/summaries/range_2/start'
p240
(lp241
S'CPU'
p242
aS'GPU'
p243
asS'import/train/gradients/dropout/dropout/div_grad/tuple/group_deps'
p244
(lp245
S'CPU'
p246
aS'GPU'
p247
asS'import/cross_entropy/total/sparse_softmax_cross_entropy_loss/num_present/broadcast_weights/ones_like'
p248
(lp249
S'CPU'
p250
aS'GPU'
p251
asS'import/layer2/biases/Variable/Adam_1/Initializer/zeros'
p252
(lp253
S'CPU'
p254
aS'GPU'
p255
asS'import/train/gradients/cross_entropy/total/sparse_softmax_cross_entropy_loss/num_present_grad/Reshape'
p256
(lp257
S'CPU'
p258
aS'GPU'
p259
asS'import/train/gradients/dropout/dropout/div_grad/Shape_1'
p260
(lp261
S'CPU'
p262
aS'GPU'
p263
asS'import/train/gradients/cross_entropy/total/sparse_softmax_cross_entropy_loss/div_grad/Shape_1'
p264
(lp265
S'CPU'
p266
aS'GPU'
p267
asS'import/layer1/activations/tag'
p268
(lp269
S'CPU'
p270
aS'GPU'
p271
asS'import/accuracy_1/tags'
p272
(lp273
S'CPU'
p274
aS'GPU'
p275
asS'import/train/Adam/update_layer1/biases/Variable/ApplyAdam'
p276
(lp277
S'CPU'
p278
aS'GPU'
p279
asS'import/layer1/weights/summaries/histogram'
p280
(lp281
S'CPU'
p282
asS'import/layer2/weights/Variable/Adam/Assign'
p283
(lp284
S'CPU'
p285
aS'GPU'
p286
asS'import/layer2/weights/Variable/Assign'
p287
(lp288
S'CPU'
p289
aS'GPU'
p290
asS'import/accuracy/correct_prediction/ArgMax'
p291
(lp292
S'CPU'
p293
aS'GPU'
p294
asS'import/layer2/weights/summaries/range_1/delta'
p295
(lp296
S'CPU'
p297
aS'GPU'
p298
asS'import/cross_entropy/total/sparse_softmax_cross_entropy_loss/ones_like/Shape'
p299
(lp300
S'CPU'
p301
aS'GPU'
p302
asS'import/train/gradients/Const'
p303
(lp304
S'CPU'
p305
aS'GPU'
p306
asS'import/layer1/weights/summaries/range_1'
p307
(lp308
S'CPU'
p309
aS'GPU'
p310
asS'import/layer1/weights/summaries/range_2'
p311
(lp312
S'CPU'
p313
aS'GPU'
p314
asS'import/dropout/dropout/random_uniform/min'
p315
(lp316
S'CPU'
p317
aS'GPU'
p318
asS'import/cross_entropy/total/sparse_softmax_cross_entropy_loss/Equal/y'
p319
(lp320
S'CPU'
p321
aS'GPU'
p322
asS'import/layer2/biases/summaries/stddev/Sqrt'
p323
(lp324
S'CPU'
p325
aS'GPU'
p326
asS'import/layer1/weights/summaries/range_2/start'
p327
(lp328
S'CPU'
p329
aS'GPU'
p330
asS'import/train/gradients/dropout/dropout/div_grad/tuple/control_dependency'
p331
(lp332
S'CPU'
p333
aS'GPU'
p334
asS'import/layer1/biases/summaries/stddev/Const'
p335
(lp336
S'CPU'
p337
aS'GPU'
p338
asS'import/train/gradients/cross_entropy/total/sparse_softmax_cross_entropy_loss/value_grad/zeros_like'
p339
(lp340
S'CPU'
p341
aS'GPU'
p342
asS'import/cross_entropy/total/sparse_softmax_cross_entropy_loss/zeros_like'
p343
(lp344
S'CPU'
p345
aS'GPU'
p346
asS'import/dropout/dropout/add'
p347
(lp348
S'CPU'
p349
aS'GPU'
p350
asS'import/layer2/biases/summaries/range_1/start'
p351
(lp352
S'CPU'
p353
aS'GPU'
p354
asS'import/train/gradients/layer2/Wx_plus_b/add_grad/Sum_1'
p355
(lp356
S'CPU'
p357
aS'GPU'
p358
asS'import/layer1/weights/Variable/Adam/read'
p359
(lp360
S'CPU'
p361
aS'GPU'
p362
asS'import/layer2/weights/summaries/stddev/Const'
p363
(lp364
S'CPU'
p365
aS'GPU'
p366
asS'import/train/gradients/cross_entropy/total/sparse_softmax_cross_entropy_loss/Select_grad/Select'
p367
(lp368
S'CPU'
p369
aS'GPU'
p370
asS'import/train/gradients/layer2/Wx_plus_b/add_grad/Shape'
p371
(lp372
S'CPU'
p373
aS'GPU'
p374
asS'import/layer2/weights/summaries/stddev_1'
p375
(lp376
S'CPU'
p377
asS'import/layer2/biases/summaries/mean/tags'
p378
(lp379
S'CPU'
p380
aS'GPU'
p381
asS'import/train/gradients/cross_entropy/total/sparse_softmax_cross_entropy_loss/xentropy/xentropy_grad/PreventGradient'
p382
(lp383
S'CPU'
p384
aS'GPU'
p385
asS'import/layer1/biases/summaries/Mean'
p386
(lp387
S'CPU'
p388
aS'GPU'
p389
asS'import/layer1/activations'
p390
(lp391
S'CPU'
p392
asS'import/layer1/biases/summaries/Min'
p393
(lp394
S'CPU'
p395
aS'GPU'
p396
asS'import/layer2/weights/Variable/Adam_1'
p397
(lp398
S'CPU'
p399
aS'GPU'
p400
asS'import/train/gradients/layer2/Wx_plus_b/add_grad/Reshape_1'
p401
(lp402
S'CPU'
p403
aS'GPU'
p404
asS'import/train/gradients/dropout/dropout/mul_grad/mul_1'
p405
(lp406
S'CPU'
p407
aS'GPU'
p408
asS'import/layer2/biases/Variable/read'
p409
(lp410
S'CPU'
p411
aS'GPU'
p412
asS'import/layer2/weights/summaries/Max'
p413
(lp414
S'CPU'
p415
aS'GPU'
p416
asS'import/layer2/biases/summaries/range_1/delta'
p417
(lp418
S'CPU'
p419
aS'GPU'
p420
asS'import/train/gradients/layer1/activation_grad/ReluGrad'
p421
(lp422
S'CPU'
p423
aS'GPU'
p424
asS'import/train/gradients/cross_entropy/total/sparse_softmax_cross_entropy_loss/div_grad/Sum_1'
p425
(lp426
S'CPU'
p427
aS'GPU'
p428
asS'import/layer1/biases/summaries/range_2/delta'
p429
(lp430
S'CPU'
p431
aS'GPU'
p432
asS'import/train/gradients/dropout/dropout/div_grad/BroadcastGradientArgs'
p433
(lp434
S'CPU'
p435
aS'GPU'
p436
asS'import/cross_entropy/total/sparse_softmax_cross_entropy_loss/num_present/broadcast_weights/assert_broadcastable/weights/shape'
p437
(lp438
S'CPU'
p439
aS'GPU'
p440
asS'import/cross_entropy/total/sparse_softmax_cross_entropy_loss/num_present/broadcast_weights/assert_broadcastable/values/shape'
p441
(lp442
S'CPU'
p443
aS'GPU'
p444
asS'import/train/gradients/layer1/Wx_plus_b/add_grad/tuple/control_dependency'
p445
(lp446
S'CPU'
p447
aS'GPU'
p448
asS'import/layer1/biases/Variable/Adam_1/Initializer/zeros'
p449
(lp450
S'CPU'
p451
aS'GPU'
p452
asS'import/layer1/biases/summaries/Rank_1'
p453
(lp454
S'CPU'
p455
aS'GPU'
p456
asS'import/layer1/weights/summaries/range_2/delta'
p457
(lp458
S'CPU'
p459
aS'GPU'
p460
asS'import/train/gradients/dropout/dropout/div_grad/Shape'
p461
(lp462
S'CPU'
p463
aS'GPU'
p464
asS'import/layer2/biases/summaries/stddev_1/tags'
p465
(lp466
S'CPU'
p467
aS'GPU'
p468
asS'import/dropout/Placeholder'
p469
(lp470
S'CPU'
p471
aS'GPU'
p472
asS'import/layer1/weights/summaries/stddev/Const'
p473
(lp474
S'CPU'
p475
aS'GPU'
p476
asS'import/layer1/weights/Variable/read'
p477
(lp478
S'CPU'
p479
aS'GPU'
p480
asS'import/train/gradients/cross_entropy/total/sparse_softmax_cross_entropy_loss/num_present/broadcast_weights_grad/Sum'
p481
(lp482
S'CPU'
p483
aS'GPU'
p484
asS'import/layer1/biases/summaries/max/tags'
p485
(lp486
S'CPU'
p487
aS'GPU'
p488
asS'import/cross_entropy/total/sparse_softmax_cross_entropy_loss/assert_broadcastable/weights/shape'
p489
(lp490
S'CPU'
p491
aS'GPU'
p492
asS'import/layer2/weights/summaries/stddev/Sqrt'
p493
(lp494
S'CPU'
p495
aS'GPU'
p496
asS'import/layer2/weights/Variable/Adam/read'
p497
(lp498
S'CPU'
p499
aS'GPU'
p500
asS'import/layer1/biases/Const'
p501
(lp502
S'CPU'
p503
aS'GPU'
p504
asS'import/layer1/Wx_plus_b/add'
p505
(lp506
S'CPU'
p507
aS'GPU'
p508
asS'import/cross_entropy/total/sparse_softmax_cross_entropy_loss/num_present/Equal/y'
p509
(lp510
S'CPU'
p511
aS'GPU'
p512
asS'import/layer1/weights/summaries/stddev/Mean'
p513
(lp514
S'CPU'
p515
aS'GPU'
p516
asS'import/layer2/biases/summaries/range_2/start'
p517
(lp518
S'CPU'
p519
aS'GPU'
p520
asS'import/cross_entropy/total/sparse_softmax_cross_entropy_loss/Equal'
p521
(lp522
S'CPU'
p523
aS'GPU'
p524
asS'import/layer2/biases/summaries/range/start'
p525
(lp526
S'CPU'
p527
aS'GPU'
p528
asS'import/layer1/biases/Variable/Adam_1/Assign'
p529
(lp530
S'CPU'
p531
aS'GPU'
p532
asS'import/layer1/weights/summaries/Rank'
p533
(lp534
S'CPU'
p535
aS'GPU'
p536
asS'import/cross_entropy/total/sparse_softmax_cross_entropy_loss/Sum'
p537
(lp538
S'CPU'
p539
aS'GPU'
p540
asS'import/train/gradients/cross_entropy/total/sparse_softmax_cross_entropy_loss/div_grad/tuple/control_dependency_1'
p541
(lp542
S'CPU'
p543
aS'GPU'
p544
asS'import/dropout/dropout/div'
p545
(lp546
S'CPU'
p547
aS'GPU'
p548
asS'import/train/gradients/layer2/Wx_plus_b/add_grad/Shape_1'
p549
(lp550
S'CPU'
p551
aS'GPU'
p552
asS'import/train/gradients/cross_entropy/total/sparse_softmax_cross_entropy_loss/value_grad/tuple/group_deps'
p553
(lp554
S'CPU'
p555
aS'GPU'
p556
asS'import/layer1/weights/Variable'
p557
(lp558
S'CPU'
p559
aS'GPU'
p560
asS'import/cross_entropy/total/sparse_softmax_cross_entropy_loss/xentropy/xentropy'
p561
(lp562
S'CPU'
p563
aS'GPU'
p564
asS'import/train/Adam/mul'
p565
(lp566
S'CPU'
p567
aS'GPU'
p568
asS'import/layer1/weights/summaries/stddev/Sqrt'
p569
(lp570
S'CPU'
p571
aS'GPU'
p572
asS'import/train/gradients/cross_entropy/total/sparse_softmax_cross_entropy_loss/value_grad/Select'
p573
(lp574
S'CPU'
p575
aS'GPU'
p576
asS'import/train/gradients/Shape'
p577
(lp578
S'CPU'
p579
aS'GPU'
p580
asS'import/train/beta2_power/Assign'
p581
(lp582
S'CPU'
p583
aS'GPU'
p584
asS'import/train/gradients/cross_entropy/total/sparse_softmax_cross_entropy_loss/Mul_grad/Shape_1'
p585
(lp586
S'CPU'
p587
aS'GPU'
p588
asS'import/layer1/biases/summaries/histogram/tag'
p589
(lp590
S'CPU'
p591
aS'GPU'
p592
asS'import/layer1/biases/Variable/Adam/Assign'
p593
(lp594
S'CPU'
p595
aS'GPU'
p596
asS'import/layer1/biases/summaries/min'
p597
(lp598
S'CPU'
p599
asS'import/layer2/weights/summaries/range'
p600
(lp601
S'CPU'
p602
aS'GPU'
p603
asS'import/cross_entropy_1/tags'
p604
(lp605
S'CPU'
p606
aS'GPU'
p607
asS'import/cross_entropy/total/sparse_softmax_cross_entropy_loss/num_present/Const'
p608
(lp609
S'CPU'
p610
aS'GPU'
p611
asS'import/train/gradients/cross_entropy/total/sparse_softmax_cross_entropy_loss/xentropy/xentropy_grad/ExpandDims/dim'
p612
(lp613
S'CPU'
p614
aS'GPU'
p615
asS'import/cross_entropy/total/sparse_softmax_cross_entropy_loss/div'
p616
(lp617
S'CPU'
p618
aS'GPU'
p619
asS'import/layer2/biases/summaries/stddev/Const'
p620
(lp621
S'CPU'
p622
aS'GPU'
p623
asS'import/train/gradients/layer2/Wx_plus_b/add_grad/tuple/group_deps'
p624
(lp625
S'CPU'
p626
aS'GPU'
p627
asS'import/layer1/biases/summaries/range_2'
p628
(lp629
S'CPU'
p630
aS'GPU'
p631
asS'import/layer2/biases/summaries/stddev_1'
p632
(lp633
S'CPU'
p634
asS'import/layer1/biases/summaries/range_1'
p635
(lp636
S'CPU'
p637
aS'GPU'
p638
asS'import/layer2/weights/summaries/stddev/Mean'
p639
(lp640
S'CPU'
p641
aS'GPU'
p642
asS'import/layer1/weights/truncated_normal/stddev'
p643
(lp644
S'CPU'
p645
aS'GPU'
p646
asS'import/dropout/dropout/random_uniform'
p647
(lp648
S'CPU'
p649
aS'GPU'
p650
asS'import/train/gradients/dropout/dropout/div_grad/RealDiv_1'
p651
(lp652
S'CPU'
p653
aS'GPU'
p654
asS'import/cross_entropy/total/sparse_softmax_cross_entropy_loss/num_present'
p655
(lp656
S'CPU'
p657
aS'GPU'
p658
asS'import/train/gradients/dropout/dropout/div_grad/RealDiv_2'
p659
(lp660
S'CPU'
p661
aS'GPU'
p662
asS'import/train/gradients/layer1/Wx_plus_b/add_grad/Shape_1'
p663
(lp664
S'CPU'
p665
aS'GPU'
p666
asS'import/train/gradients/cross_entropy/total/sparse_softmax_cross_entropy_loss/num_present/broadcast_weights_grad/Sum_1'
p667
(lp668
S'CPU'
p669
aS'GPU'
p670
asS'import/train/gradients/cross_entropy/total/sparse_softmax_cross_entropy_loss/xentropy/xentropy_grad/mul'
p671
(lp672
S'CPU'
p673
aS'GPU'
p674
asS'import/train/gradients/cross_entropy/total/sparse_softmax_cross_entropy_loss/Mul_grad/Sum'
p675
(lp676
S'CPU'
p677
aS'GPU'
p678
asS'import/layer1/weights/Variable/Adam_1/Initializer/zeros'
p679
(lp680
S'CPU'
p681
aS'GPU'
p682
asS'import/train/gradients/cross_entropy/total/sparse_softmax_cross_entropy_loss/div_grad/BroadcastGradientArgs'
p683
(lp684
S'CPU'
p685
aS'GPU'
p686
asS'import/train/gradients/dropout/dropout/mul_grad/Shape_1'
p687
(lp688
S'CPU'
p689
aS'GPU'
p690
asS'import/layer1/weights/Variable/Adam_1'
p691
(lp692
S'CPU'
p693
aS'GPU'
p694
asS'import/layer2/biases/summaries/stddev/sub'
p695
(lp696
S'CPU'
p697
aS'GPU'
p698
asS'import/train/gradients/cross_entropy/total/sparse_softmax_cross_entropy_loss/num_present/broadcast_weights_grad/Shape_1'
p699
(lp700
S'CPU'
p701
aS'GPU'
p702
asS'import/train/gradients/zeros_like'
p703
(lp704
S'CPU'
p705
aS'GPU'
p706
asS'import/cross_entropy/total/sparse_softmax_cross_entropy_loss/num_present/broadcast_weights'
p707
(lp708
S'CPU'
p709
aS'GPU'
p710
asS'import/layer1/biases/Variable/read'
p711
(lp712
S'CPU'
p713
aS'GPU'
p714
asS'import/train/gradients/cross_entropy/total/sparse_softmax_cross_entropy_loss/num_present/broadcast_weights_grad/Reshape_1'
p715
(lp716
S'CPU'
p717
aS'GPU'
p718
asS'import/layer2/Wx_plus_b/pre_activations/tag'
p719
(lp720
S'CPU'
p721
aS'GPU'
p722
asS'import/layer2/weights/truncated_normal/shape'
p723
(lp724
S'CPU'
p725
aS'GPU'
p726
asS'import/cross_entropy/total/sparse_softmax_cross_entropy_loss/assert_broadcastable/values/shape'
p727
(lp728
S'CPU'
p729
aS'GPU'
p730
asS'import/train/gradients/cross_entropy/total/sparse_softmax_cross_entropy_loss/value_grad/Select_1'
p731
(lp732
S'CPU'
p733
aS'GPU'
p734
asS'import/train/gradients/cross_entropy/total/sparse_softmax_cross_entropy_loss/Sum_grad/Reshape'
p735
(lp736
S'CPU'
p737
aS'GPU'
p738
asS'import/dropout/dropout/Floor'
p739
(lp740
S'CPU'
p741
aS'GPU'
p742
asS'import/layer1/weights/summaries/Mean'
p743
(lp744
S'CPU'
p745
aS'GPU'
p746
asS'import/layer2/weights/summaries/mean'
p747
(lp748
S'CPU'
p749
asS'import/layer2/biases/Variable/Adam/read'
p750
(lp751
S'CPU'
p752
aS'GPU'
p753
asS'import/train/gradients/cross_entropy/total/sparse_softmax_cross_entropy_loss/div_grad/mul'
p754
(lp755
S'CPU'
p756
aS'GPU'
p757
asS'import/accuracy/accuracy/Const'
p758
(lp759
S'CPU'
p760
aS'GPU'
p761
asS'import/train/beta2_power/read'
p762
(lp763
S'CPU'
p764
aS'GPU'
p765
asS'import/dropout/dropout/random_uniform/mul'
p766
(lp767
S'CPU'
p768
aS'GPU'
p769
asS'import/layer2/weights/Variable'
p770
(lp771
S'CPU'
p772
aS'GPU'
p773
asS'import/train/Adam/beta2'
p774
(lp775
S'CPU'
p776
aS'GPU'
p777
asS'import/train/Adam/beta1'
p778
(lp779
S'CPU'
p780
aS'GPU'
p781
asS'import/train/gradients/cross_entropy/total/sparse_softmax_cross_entropy_loss/Sum_1_grad/Tile'
p782
(lp783
S'CPU'
p784
aS'GPU'
p785
asS'import/layer1/biases/summaries/stddev/sub'
p786
(lp787
S'CPU'
p788
aS'GPU'
p789
asS'import/layer1/biases/summaries/Max'
p790
(lp791
S'CPU'
p792
aS'GPU'
p793
asS'import/train/gradients/layer2/Wx_plus_b/add_grad/Sum'
p794
(lp795
S'CPU'
p796
aS'GPU'
p797
asS'import/layer1/biases/summaries/mean/tags'
p798
(lp799
S'CPU'
p800
aS'GPU'
p801
asS'import/train/gradients/cross_entropy/total/sparse_softmax_cross_entropy_loss/value_grad/tuple/control_dependency'
p802
(lp803
S'CPU'
p804
aS'GPU'
p805
asS'import/train/gradients/cross_entropy/total/sparse_softmax_cross_entropy_loss/num_present_grad/Tile'
p806
(lp807
S'CPU'
p808
aS'GPU'
p809
asS'import/train/gradients/cross_entropy/total/sparse_softmax_cross_entropy_loss/Sum_1_grad/Reshape/shape'
p810
(lp811
S'CPU'
p812
aS'GPU'
p813
asS'import/dropout/dropout/mul'
p814
(lp815
S'CPU'
p816
aS'GPU'
p817
asS'import/layer2/weights/summaries/range_2'
p818
(lp819
S'CPU'
p820
aS'GPU'
p821
asS'import/layer2/weights/summaries/range_1'
p822
(lp823
S'CPU'
p824
aS'GPU'
p825
asS'import/train/gradients/cross_entropy/total/sparse_softmax_cross_entropy_loss/div_grad/Neg'
p826
(lp827
S'CPU'
p828
aS'GPU'
p829
asS'import/layer1/biases/summaries/min/tags'
p830
(lp831
S'CPU'
p832
aS'GPU'
p833
asS'import/train/gradients/dropout/dropout/mul_grad/Sum_1'
p834
(lp835
S'CPU'
p836
aS'GPU'
p837
asS'import/layer1/biases/Variable/Adam'
p838
(lp839
S'CPU'
p840
aS'GPU'
p841
asS'import/layer2/weights/summaries/Min'
p842
(lp843
S'CPU'
p844
aS'GPU'
p845
asS'import/layer2/weights/truncated_normal'
p846
(lp847
S'CPU'
p848
aS'GPU'
p849
asS'import/cross_entropy/total/sparse_softmax_cross_entropy_loss/num_present/Select'
p850
(lp851
S'CPU'
p852
aS'GPU'
p853
asS'import/train/Adam'
p854
(lp855
S'CPU'
p856
aS'GPU'
p857
asS'import/layer2/biases/Variable/Adam'
p858
(lp859
S'CPU'
p860
aS'GPU'
p861
asS'import/layer2/biases/summaries/min'
p862
(lp863
S'CPU'
p864
asS'import/layer2/biases/Variable/Adam_1'
p865
(lp866
S'CPU'
p867
aS'GPU'
p868
asS'import/layer1/biases/summaries/range'
p869
(lp870
S'CPU'
p871
aS'GPU'
p872
asS'import/train/gradients/dropout/dropout/mul_grad/tuple/control_dependency'
p873
(lp874
S'CPU'
p875
aS'GPU'
p876
asS'import/train/gradients/layer2/Wx_plus_b/MatMul_grad/tuple/control_dependency_1'
p877
(lp878
S'CPU'
p879
aS'GPU'
p880
asS'import/train/gradients/layer1/Wx_plus_b/MatMul_grad/tuple/group_deps'
p881
(lp882
S'CPU'
p883
aS'GPU'
p884
asS'import/accuracy/accuracy/Mean'
p885
(lp886
S'CPU'
p887
aS'GPU'
p888
asS'import/layer1/biases/summaries/Rank'
p889
(lp890
S'CPU'
p891
aS'GPU'
p892
asS'import/layer1/weights/Variable/Adam'
p893
(lp894
S'CPU'
p895
aS'GPU'
p896
asS'import/cross_entropy/total/sparse_softmax_cross_entropy_loss/ones_like/Const'
p897
(lp898
S'CPU'
p899
aS'GPU'
p900
asS'import/cross_entropy/total/sparse_softmax_cross_entropy_loss/ones_like'
p901
(lp902
S'CPU'
p903
aS'GPU'
p904
asS'import/cross_entropy/total/sparse_softmax_cross_entropy_loss/assert_broadcastable/values/rank'
p905
(lp906
S'CPU'
p907
aS'GPU'
p908
asS'import/layer2/weights/summaries/Rank'
p909
(lp910
S'CPU'
p911
aS'GPU'
p912
asS'import/layer1/biases/summaries/range_1/delta'
p913
(lp914
S'CPU'
p915
aS'GPU'
p916
asS'import/accuracy_1'
p917
(lp918
S'CPU'
p919
asS'import/layer1/biases/summaries/mean'
p920
(lp921
S'CPU'
p922
asS'import/layer1/biases/summaries/Rank_2'
p923
(lp924
S'CPU'
p925
aS'GPU'
p926
asS'import/train/Adam/update_layer2/biases/Variable/ApplyAdam'
p927
(lp928
S'CPU'
p929
aS'GPU'
p930
asS'import/layer2/weights/Variable/read'
p931
(lp932
S'CPU'
p933
aS'GPU'
p934
asS'import/layer1/biases/summaries/stddev_1'
p935
(lp936
S'CPU'
p937
asS'import/input_reshape/input/tag'
p938
(lp939
S'CPU'
p940
aS'GPU'
p941
asS'import/cross_entropy/total/sparse_softmax_cross_entropy_loss/Const_1'
p942
(lp943
S'CPU'
p944
aS'GPU'
p945
asS'import/cross_entropy/total/sparse_softmax_cross_entropy_loss/Const_2'
p946
(lp947
S'CPU'
p948
aS'GPU'
p949
asS'import/train/gradients/dropout/dropout/mul_grad/Reshape'
p950
(lp951
S'CPU'
p952
aS'GPU'
p953
asS'import/layer1/weights/truncated_normal/shape'
p954
(lp955
S'CPU'
p956
aS'GPU'
p957
asS'import/train/gradients/layer2/Wx_plus_b/MatMul_grad/MatMul'
p958
(lp959
S'CPU'
p960
aS"CPU'; label='eigen"
p961
aS'GPU'
p962
aS"GPU'; label='cublas"
p963
asS'import/layer2/weights/summaries/range_1/start'
p964
(lp965
S'CPU'
p966
aS'GPU'
p967
asS'import/train/gradients/dropout/dropout/div_grad/Sum'
p968
(lp969
S'CPU'
p970
aS'GPU'
p971
asS'import/layer2/biases/summaries/Rank'
p972
(lp973
S'CPU'
p974
aS'GPU'
p975
asS'import/layer2/weights/summaries/max'
p976
(lp977
S'CPU'
p978
asS'import/train/gradients/cross_entropy/total/sparse_softmax_cross_entropy_loss/div_grad/Shape'
p979
(lp980
S'CPU'
p981
aS'GPU'
p982
asS'import/layer2/weights/truncated_normal/TruncatedNormal'
p983
(lp984
S'CPU'
p985
aS'GPU'
p986
asS'import/layer2/weights/summaries/histogram/tag'
p987
(lp988
S'CPU'
p989
aS'GPU'
p990
asS'import/layer1/biases/summaries/stddev_1/tags'
p991
(lp992
S'CPU'
p993
aS'GPU'
p994
asS'import/train/gradients/cross_entropy/total/sparse_softmax_cross_entropy_loss/Select_grad/tuple/control_dependency'
p995
(lp996
S'CPU'
p997
aS'GPU'
p998
asS'import/train/gradients/cross_entropy/total/sparse_softmax_cross_entropy_loss/Sum_grad/Reshape/shape'
p999
(lp1000
S'CPU'
p1001
aS'GPU'
p1002
asS'import/cross_entropy/total/sparse_softmax_cross_entropy_loss/assert_broadcastable/weights/rank'
p1003
(lp1004
S'CPU'
p1005
aS'GPU'
p1006
asS'import/train/gradients/layer1/Wx_plus_b/MatMul_grad/tuple/control_dependency'
p1007
(lp1008
S'CPU'
p1009
aS'GPU'
p1010
asS'import/cross_entropy/total/sparse_softmax_cross_entropy_loss/num_present/Equal'
p1011
(lp1012
S'CPU'
p1013
aS'GPU'
p1014
asS'import/train/gradients/cross_entropy/total/sparse_softmax_cross_entropy_loss/div_grad/Reshape_1'
p1015
(lp1016
S'CPU'
p1017
aS'GPU'
p1018
asS'import/layer1/biases/summaries/max'
p1019
(lp1020
S'CPU'
p1021
asS'import/layer2/activation'
p1022
(lp1023
S'CPU'
p1024
aS'GPU'
p1025
asS'import/layer2/biases/summaries/Mean'
p1026
(lp1027
S'CPU'
p1028
aS'GPU'
p1029
asS'import/train/Adam/update_layer1/weights/Variable/ApplyAdam'
p1030
(lp1031
S'CPU'
p1032
aS'GPU'
p1033
asS'import/train/Adam/learning_rate'
p1034
(lp1035
S'CPU'
p1036
aS'GPU'
p1037
asS'import/layer2/biases/Variable/Adam/Assign'
p1038
(lp1039
S'CPU'
p1040
aS'GPU'
p1041
asS'import/train/gradients/dropout/dropout/mul_grad/mul'
p1042
(lp1043
S'CPU'
p1044
aS'GPU'
p1045
asS'import/cross_entropy/total/sparse_softmax_cross_entropy_loss/Greater/y'
p1046
(lp1047
S'CPU'
p1048
aS'GPU'
p1049
asS'import/layer2/biases/Variable'
p1050
(lp1051
S'CPU'
p1052
aS'GPU'
p1053
asS'import/layer2/weights/summaries/histogram'
p1054
(lp1055
S'CPU'
p1056
asS'import/layer1/weights/summaries/stddev/Square'
p1057
(lp1058
S'CPU'
p1059
aS'GPU'
p1060
asS'import/train/gradients/dropout/dropout/mul_grad/Sum'
p1061
(lp1062
S'CPU'
p1063
aS'GPU'
p1064
asS'import/train/gradients/cross_entropy/total/sparse_softmax_cross_entropy_loss/num_present_grad/Shape'
p1065
(lp1066
S'CPU'
p1067
aS'GPU'
p1068
asS'import/layer2/biases/summaries/Min'
p1069
(lp1070
S'CPU'
p1071
aS'GPU'
p1072
asS'import/train/gradients/layer1/Wx_plus_b/add_grad/BroadcastGradientArgs'
p1073
(lp1074
S'CPU'
p1075
aS'GPU'
p1076
asS'import/layer2/biases/summaries/range/delta'
p1077
(lp1078
S'CPU'
p1079
aS'GPU'
p1080
asS'import/train/gradients/cross_entropy/total/sparse_softmax_cross_entropy_loss/Mul_grad/Reshape_1'
p1081
(lp1082
S'CPU'
p1083
aS'GPU'
p1084
asS'import/layer2/biases/summaries/range_1'
p1085
(lp1086
S'CPU'
p1087
aS'GPU'
p1088
asS'import/layer2/weights/truncated_normal/stddev'
p1089
(lp1090
S'CPU'
p1091
aS'GPU'
p1092
asS'import/layer2/biases/Const'
p1093
(lp1094
S'CPU'
p1095
aS'GPU'
p1096
asS'import/train/gradients/cross_entropy/total/sparse_softmax_cross_entropy_loss/Mul_grad/tuple/control_dependency_1'
p1097
(lp1098
S'CPU'
p1099
aS'GPU'
p1100
asS'import/train/gradients/cross_entropy/total/sparse_softmax_cross_entropy_loss/Select_grad/Select_1'
p1101
(lp1102
S'CPU'
p1103
aS'GPU'
p1104
asS'import/layer1/weights/summaries/Rank_1'
p1105
(lp1106
S'CPU'
p1107
aS'GPU'
p1108
asS'import/layer1/weights/summaries/Rank_2'
p1109
(lp1110
S'CPU'
p1111
aS'GPU'
p1112
asS'import/layer1/biases/summaries/stddev/Square'
p1113
(lp1114
S'CPU'
p1115
aS'GPU'
p1116
asS'import/dropout/dropout_keep_probability/tags'
p1117
(lp1118
S'CPU'
p1119
aS'GPU'
p1120
asS'import/train/gradients/dropout/dropout/div_grad/tuple/control_dependency_1'
p1121
(lp1122
S'CPU'
p1123
aS'GPU'
p1124
asS'import/input_reshape/Reshape'
p1125
(lp1126
S'CPU'
p1127
aS'GPU'
p1128
asS'import/layer2/biases/summaries/stddev/Mean'
p1129
(lp1130
S'CPU'
p1131
aS'GPU'
p1132
asS'import/layer2/weights/summaries/stddev/Square'
p1133
(lp1134
S'CPU'
p1135
aS'GPU'
p1136
asS'import/train/gradients/cross_entropy/total/sparse_softmax_cross_entropy_loss/div_grad/Reshape'
p1137
(lp1138
S'CPU'
p1139
aS'GPU'
p1140
asS'import/layer2/weights/Variable/Adam_1/Assign'
p1141
(lp1142
S'CPU'
p1143
aS'GPU'
p1144
asS'import/layer2/biases/summaries/Rank_2'
p1145
(lp1146
S'CPU'
p1147
aS'GPU'
p1148
asS'import/layer2/biases/summaries/Rank_1'
p1149
(lp1150
S'CPU'
p1151
aS'GPU'
p1152
asS'import/layer1/weights/truncated_normal/TruncatedNormal'
p1153
(lp1154
S'CPU'
p1155
aS'GPU'
p1156
asS'import/train/gradients/cross_entropy/total/sparse_softmax_cross_entropy_loss/div_grad/RealDiv'
p1157
(lp1158
S'CPU'
p1159
aS'GPU'
p1160
asS'import/layer2/activations'
p1161
(lp1162
S'CPU'
p1163
asS'import/layer2/Wx_plus_b/pre_activations'
p1164
(lp1165
S'CPU'
p1166
asS'import/train/gradients/cross_entropy/total/sparse_softmax_cross_entropy_loss/num_present/broadcast_weights_grad/mul_1'
p1167
(lp1168
S'CPU'
p1169
aS'GPU'
p1170
asS'import/Merge/MergeSummary'
p1171
(lp1172
S'CPU'
p1173
asS'import/cross_entropy_1'
p1174
(lp1175
S'CPU'
p1176
asS'import/layer1/activation'
p1177
(lp1178
S'CPU'
p1179
aS'GPU'
p1180
asS'import/train/gradients/cross_entropy/total/sparse_softmax_cross_entropy_loss/num_present_grad/Reshape/shape'
p1181
(lp1182
S'CPU'
p1183
aS'GPU'
p1184
asS'import/layer1/weights/summaries/stddev/sub'
p1185
(lp1186
S'CPU'
p1187
aS'GPU'
p1188
asS'import/train/gradients/cross_entropy/total/sparse_softmax_cross_entropy_loss/num_present/broadcast_weights_grad/tuple/control_dependency'
p1189
(lp1190
S'CPU'
p1191
aS'GPU'
p1192
asS'import/layer1/weights/summaries/range_1/delta'
p1193
(lp1194
S'CPU'
p1195
aS'GPU'
p1196
asS'import/train/gradients/dropout/dropout/mul_grad/Shape'
p1197
(lp1198
S'CPU'
p1199
aS'GPU'
p1200
asS'import/train/beta1_power/read'
p1201
(lp1202
S'CPU'
p1203
aS'GPU'
p1204
asS'import/layer1/biases/Variable/Adam/Initializer/zeros'
p1205
(lp1206
S'CPU'
p1207
aS'GPU'
p1208
asS'import/train/Adam/Assign_1'
p1209
(lp1210
S'CPU'
p1211
aS'GPU'
p1212
asS'import/train/gradients/layer1/Wx_plus_b/add_grad/Shape'
p1213
(lp1214
S'CPU'
p1215
aS'GPU'
p1216
asS'import/layer2/weights/Variable/Adam_1/read'
p1217
(lp1218
S'CPU'
p1219
aS'GPU'
p1220
asS'import/train/gradients/cross_entropy/total/sparse_softmax_cross_entropy_loss/num_present/broadcast_weights/ones_like_grad/Sum'
p1221
(lp1222
S'CPU'
p1223
aS'GPU'
p1224
asS'import/accuracy/correct_prediction/Equal'
p1225
(lp1226
S'CPU'
p1227
aS'GPU'
p1228
asS'import/cross_entropy/total/sparse_softmax_cross_entropy_loss/num_present/broadcast_weights/ones_like/Shape'
p1229
(lp1230
S'CPU'
p1231
aS'GPU'
p1232
asS'import/dropout/dropout_keep_probability'
p1233
(lp1234
S'CPU'
p1235
asS'import/train/gradients/cross_entropy/total/sparse_softmax_cross_entropy_loss/Mul_grad/BroadcastGradientArgs'
p1236
(lp1237
S'CPU'
p1238
aS'GPU'
p1239
asS'import/layer1/weights/Variable/Adam_1/read'
p1240
(lp1241
S'CPU'
p1242
aS'GPU'
p1243
asS'import/train/gradients/cross_entropy/total/sparse_softmax_cross_entropy_loss/Mul_grad/tuple/control_dependency'
p1244
(lp1245
S'CPU'
p1246
aS'GPU'
p1247
asS'import/train/gradients/dropout/dropout/mul_grad/tuple/control_dependency_1'
p1248
(lp1249
S'CPU'
p1250
aS'GPU'
p1251
asS'import/train/gradients/cross_entropy/total/sparse_softmax_cross_entropy_loss/num_present/broadcast_weights_grad/tuple/control_dependency_1'
p1252
(lp1253
S'CPU'
p1254
aS'GPU'
p1255
asS'import/layer2/Wx_plus_b/MatMul'
p1256
(lp1257
S'CPU'
p1258
aS"CPU'; label='eigen"
p1259
aS'GPU'
p1260
aS"GPU'; label='cublas"
p1261
asS'import/cross_entropy/total/sparse_softmax_cross_entropy_loss/value'
p1262
(lp1263
S'CPU'
p1264
aS'GPU'
p1265
asS'import/layer2/weights/summaries/range/start'
p1266
(lp1267
S'CPU'
p1268
aS'GPU'
p1269
asS'import/train/gradients/cross_entropy/total/sparse_softmax_cross_entropy_loss/Sum_1_grad/Reshape'
p1270
(lp1271
S'CPU'
p1272
aS'GPU'
p1273
asS'import/input/y-input'
p1274
(lp1275
S'CPU'
p1276
aS'GPU'
p1277
asS'import/layer2/weights/summaries/stddev_1/tags'
p1278
(lp1279
S'CPU'
p1280
aS'GPU'
p1281
asS'import/layer2/biases/summaries/max'
p1282
(lp1283
S'CPU'
p1284
asS'import/layer2/weights/summaries/Mean'
p1285
(lp1286
S'CPU'
p1287
aS'GPU'
p1288
asS'import/train/gradients/cross_entropy/total/sparse_softmax_cross_entropy_loss/value_grad/tuple/control_dependency_1'
p1289
(lp1290
S'CPU'
p1291
aS'GPU'
p1292
asS'import/dropout/dropout/random_uniform/sub'
p1293
(lp1294
S'CPU'
p1295
aS'GPU'
p1296
asS'import/layer1/weights/Variable/Adam/Assign'
p1297
(lp1298
S'CPU'
p1299
aS'GPU'
p1300
asS'import/layer1/weights/truncated_normal/mul'
p1301
(lp1302
S'CPU'
p1303
aS'GPU'
p1304
asS'import/layer1/weights/Variable/Adam/Initializer/zeros'
p1305
(lp1306
S'CPU'
p1307
aS'GPU'
p1308
asS'import/layer1/biases/summaries/range/start'
p1309
(lp1310
S'CPU'
p1311
aS'GPU'
p1312
asS'import/input_reshape/input'
p1313
(lp1314
S'CPU'
p1315
asS'import/train/gradients/layer1/Wx_plus_b/add_grad/Reshape_1'
p1316
(lp1317
S'CPU'
p1318
aS'GPU'
p1319
asS'import/layer2/weights/summaries/min/tags'
p1320
(lp1321
S'CPU'
p1322
aS'GPU'
p1323
asS'import/layer1/biases/Variable/Adam_1/read'
p1324
(lp1325
S'CPU'
p1326
aS'GPU'
p1327
asS'import/train/gradients/cross_entropy/total/sparse_softmax_cross_entropy_loss/Select_grad/zeros_like'
p1328
(lp1329
S'CPU'
p1330
aS'GPU'
p1331
asS'import/layer2/weights/Variable/Adam_1/Initializer/zeros'
p1332
(lp1333
S'CPU'
p1334
aS'GPU'
p1335
asS'import/input_reshape/Reshape/shape'
p1336
(lp1337
S'CPU'
p1338
aS'GPU'
p1339
asS'import/train/beta2_power'
p1340
(lp1341
S'CPU'
p1342
aS'GPU'
p1343
asS'import/train/gradients/Fill'
p1344
(lp1345
S'CPU'
p1346
aS'GPU'
p1347
asS'import/layer1/biases/Variable/Assign'
p1348
(lp1349
S'CPU'
p1350
aS'GPU'
p1351
asS'import/layer1/weights/truncated_normal/mean'
p1352
(lp1353
S'CPU'
p1354
aS'GPU'
p1355
asS'import/layer2/biases/summaries/histogram/tag'
p1356
(lp1357
S'CPU'
p1358
aS'GPU'
p1359
asS'import/layer2/biases/Variable/Adam/Initializer/zeros'
p1360
(lp1361
S'CPU'
p1362
aS'GPU'
p1363
asS'import/train/gradients/cross_entropy/total/sparse_softmax_cross_entropy_loss/Sum_1_grad/Tile/multiples'
p1364
(lp1365
S'CPU'
p1366
aS'GPU'
p1367
asS'import/layer2/Wx_plus_b/add'
p1368
(lp1369
S'CPU'
p1370
aS'GPU'
p1371
asS'import/layer2/biases/summaries/range_2/delta'
p1372
(lp1373
S'CPU'
p1374
aS'GPU'
p1375
asS'import/train/gradients/layer1/Wx_plus_b/MatMul_grad/MatMul'
p1376
(lp1377
S'CPU'
p1378
aS"CPU'; label='eigen"
p1379
aS'GPU'
p1380
aS"GPU'; label='cublas"
p1381
asS'import/dropout/dropout/random_uniform/RandomUniform'
p1382
(lp1383
S'CPU'
p1384
aS'GPU'
p1385
asS'import/layer1/weights/truncated_normal'
p1386
(lp1387
S'CPU'
p1388
aS'GPU'
p1389
asS'import/layer1/weights/summaries/histogram/tag'
p1390
(lp1391
S'CPU'
p1392
aS'GPU'
p1393
asS'import/train/gradients/cross_entropy/total/sparse_softmax_cross_entropy_loss/div_grad/tuple/group_deps'
p1394
(lp1395
S'CPU'
p1396
aS'GPU'
p1397
asS'import/cross_entropy/total/sparse_softmax_cross_entropy_loss/num_present/zeros_like'
p1398
(lp1399
S'CPU'
p1400
aS'GPU'
p1401
asS'import/cross_entropy/total/sparse_softmax_cross_entropy_loss/Mul'
p1402
(lp1403
S'CPU'
p1404
aS'GPU'
p1405
asS'import/train/beta2_power/initial_value'
p1406
(lp1407
S'CPU'
p1408
aS'GPU'
p1409
asS'import/layer2/biases/Variable/Adam_1/Assign'
p1410
(lp1411
S'CPU'
p1412
aS'GPU'
p1413
asS'import/cross_entropy/total/sparse_softmax_cross_entropy_loss/num_present/broadcast_weights/assert_broadcastable/values/rank'
p1414
(lp1415
S'CPU'
p1416
aS'GPU'
p1417
asS'import/cross_entropy/total/sparse_softmax_cross_entropy_loss/num_present/ones_like/Shape'
p1418
(lp1419
S'CPU'
p1420
aS'GPU'
p1421
asS'import/layer2/weights/summaries/min'
p1422
(lp1423
S'CPU'
p1424
asS'import/train/gradients/dropout/dropout/div_grad/RealDiv'
p1425
(lp1426
S'CPU'
p1427
aS'GPU'
p1428
asS'import/train/gradients/layer2/Wx_plus_b/MatMul_grad/tuple/group_deps'
p1429
(lp1430
S'CPU'
p1431
aS'GPU'
p1432
asS'import/layer2/biases/summaries/stddev/Square'
p1433
(lp1434
S'CPU'
p1435
aS'GPU'
p1436
asS'import/layer1/weights/summaries/stddev_1'
p1437
(lp1438
S'CPU'
p1439
asS'import/input/x-input'
p1440
(lp1441
S'CPU'
p1442
aS'GPU'
p1443
asS'import/layer2/weights/summaries/Rank_1'
p1444
(lp1445
S'CPU'
p1446
aS'GPU'
p1447
asS'import/layer2/weights/summaries/Rank_2'
p1448
(lp1449
S'CPU'
p1450
aS'GPU'
p1451
asS'import/layer1/weights/summaries/Min'
p1452
(lp1453
S'CPU'
p1454
aS'GPU'
p1455
asS'import/layer2/biases/summaries/range'
p1456
(lp1457
S'CPU'
p1458
aS'GPU'
p1459
asS'import/layer1/weights/summaries/max/tags'
p1460
(lp1461
S'CPU'
p1462
aS'GPU'
p1463
asS'import/train/gradients/cross_entropy/total/sparse_softmax_cross_entropy_loss/Select_grad/tuple/group_deps'
p1464
(lp1465
S'CPU'
p1466
aS'GPU'
p1467
asS'import/cross_entropy/total/sparse_softmax_cross_entropy_loss/num_present/broadcast_weights/ones_like/Const'
p1468
(lp1469
S'CPU'
p1470
aS'GPU'
p1471
asS'import/train/gradients/layer2/Wx_plus_b/add_grad/tuple/control_dependency'
p1472
(lp1473
S'CPU'
p1474
aS'GPU'
p1475
asS'import/train/gradients/dropout/dropout/div_grad/Reshape'
p1476
(lp1477
S'CPU'
p1478
aS'GPU'
p1479
asS'import/layer1/weights/Variable/Assign'
p1480
(lp1481
S'CPU'
p1482
aS'GPU'
p1483
asS'import/train/gradients/layer1/Wx_plus_b/add_grad/Reshape'
p1484
(lp1485
S'CPU'
p1486
aS'GPU'
p1487
asS'import/train/Adam/update_layer2/weights/Variable/ApplyAdam'
p1488
(lp1489
S'CPU'
p1490
aS'GPU'
p1491
asS'import/train/gradients/dropout/dropout/div_grad/Reshape_1'
p1492
(lp1493
S'CPU'
p1494
aS'GPU'
p1495
asS'import/train/gradients/layer1/Wx_plus_b/add_grad/tuple/control_dependency_1'
p1496
(lp1497
S'CPU'
p1498
aS'GPU'
p1499
asS'import/layer2/weights/summaries/stddev/sub'
p1500
(lp1501
S'CPU'
p1502
aS'GPU'
p1503
asS'import/layer1/biases/summaries/range_1/start'
p1504
(lp1505
S'CPU'
p1506
aS'GPU'
p1507
asS'import/cross_entropy/total/sparse_softmax_cross_entropy_loss/num_present/ones_like/Const'
p1508
(lp1509
S'CPU'
p1510
aS'GPU'
p1511
asS'import/train/gradients/layer2/Wx_plus_b/MatMul_grad/MatMul_1'
p1512
(lp1513
S'CPU'
p1514
aS"CPU'; label='eigen"
p1515
aS'GPU'
p1516
aS"GPU'; label='cublas"
p1517
asS'import/cross_entropy/total/sparse_softmax_cross_entropy_loss/num_present/broadcast_weights/assert_broadcastable/static_scalar_check_success'
p1518
(lp1519
S'CPU'
p1520
aS'GPU'
p1521
asS'import/dropout/dropout/random_uniform/max'
p1522
(lp1523
S'CPU'
p1524
aS'GPU'
p1525
asS'import/layer1/weights/summaries/range'
p1526
(lp1527
S'CPU'
p1528
aS'GPU'
p1529
asS'import/layer2/activations/tag'
p1530
(lp1531
S'CPU'
p1532
aS'GPU'
p1533
asS'import/layer2/biases/summaries/mean'
p1534
(lp1535
S'CPU'
p1536
asS'import/train/Adam/Assign'
p1537
(lp1538
S'CPU'
p1539
aS'GPU'
p1540
asS'import/layer1/biases/Variable/Adam/read'
p1541
(lp1542
S'CPU'
p1543
aS'GPU'
p1544
asS'import/cross_entropy/total/sparse_softmax_cross_entropy_loss/num_present/ones_like'
p1545
(lp1546
S'CPU'
p1547
aS'GPU'
p1548
asS'import/layer1/weights/Variable/Adam_1/Assign'
p1549
(lp1550
S'CPU'
p1551
aS'GPU'
p1552
asS'import/train/gradients/dropout/dropout/mul_grad/BroadcastGradientArgs'
p1553
(lp1554
S'CPU'
p1555
aS'GPU'
p1556
asS'import/layer1/weights/summaries/max'
p1557
(lp1558
S'CPU'
p1559
asS'import/train/gradients/cross_entropy/total/sparse_softmax_cross_entropy_loss/Mul_grad/Reshape'
p1560
(lp1561
S'CPU'
p1562
aS'GPU'
p1563
asS'import/layer2/weights/summaries/range_2/delta'
p1564
(lp1565
S'CPU'
p1566
aS'GPU'
p1567
asS'import/dropout/dropout/Shape'
p1568
(lp1569
S'CPU'
p1570
aS'GPU'
p1571
asS'import/layer2/weights/truncated_normal/mean'
p1572
(lp1573
S'CPU'
p1574
aS'GPU'
p1575
asS'import/layer2/weights/Variable/Adam'
p1576
(lp1577
S'CPU'
p1578
aS'GPU'
p1579
asS'import/layer1/weights/summaries/range/start'
p1580
(lp1581
S'CPU'
p1582
aS'GPU'
p1583
asS'import/layer1/weights/summaries/stddev_1/tags'
p1584
(lp1585
S'CPU'
p1586
aS'GPU'
p1587
asS'import/accuracy/correct_prediction/ArgMax/dimension'
p1588
(lp1589
S'CPU'
p1590
aS'GPU'
p1591
asS'import/train/gradients/cross_entropy/total/sparse_softmax_cross_entropy_loss/xentropy/xentropy_grad/ExpandDims'
p1592
(lp1593
S'CPU'
p1594
aS'GPU'
p1595
asS'import/layer2/biases/summaries/min/tags'
p1596
(lp1597
S'CPU'
p1598
aS'GPU'
p1599
asS'import/train/gradients/dropout/dropout/div_grad/mul'
p1600
(lp1601
S'CPU'
p1602
aS'GPU'
p1603
asS'import/train/gradients/cross_entropy/total/sparse_softmax_cross_entropy_loss/Sum_grad/Tile'
p1604
(lp1605
S'CPU'
p1606
aS'GPU'
p1607
asS'import/cross_entropy/total/sparse_softmax_cross_entropy_loss/Const'
p1608
(lp1609
S'CPU'
p1610
aS'GPU'
p1611
asS'import/layer1/weights/summaries/range/delta'
p1612
(lp1613
S'CPU'
p1614
aS'GPU'
p1615
asS'import/train/gradients/cross_entropy/total/sparse_softmax_cross_entropy_loss/div_grad/Sum'
p1616
(lp1617
S'CPU'
p1618
aS'GPU'
p1619
asS'import/layer1/Wx_plus_b/pre_activations/tag'
p1620
(lp1621
S'CPU'
p1622
aS'GPU'
p1623
asS'import/train/gradients/layer1/Wx_plus_b/MatMul_grad/tuple/control_dependency_1'
p1624
(lp1625
S'CPU'
p1626
aS'GPU'
p1627
asS'import/layer2/biases/summaries/range_2'
p1628
(lp1629
S'CPU'
p1630
aS'GPU'
p1631
asS'import/layer2/biases/summaries/Max'
p1632
(lp1633
S'CPU'
p1634
aS'GPU'
p1635
asS'import/train/gradients/cross_entropy/total/sparse_softmax_cross_entropy_loss/Mul_grad/Shape'
p1636
(lp1637
S'CPU'
p1638
aS'GPU'
p1639
asS'import/layer1/biases/summaries/stddev/Mean'
p1640
(lp1641
S'CPU'
p1642
aS'GPU'
p1643
asS'import/train/Adam/mul_1'
p1644
(lp1645
S'CPU'
p1646
aS'GPU'
p1647
asS'import/train/gradients/cross_entropy/total/sparse_softmax_cross_entropy_loss/div_grad/tuple/control_dependency'
p1648
(lp1649
S'CPU'
p1650
aS'GPU'
p1651
as.